
STM32F4_FreeRTOS.elf:     file format elf32-littlearm

Sections:
Idx Name          Size      VMA       LMA       File off  Algn
  0 .isr_vector   00000188  08000000  08000000  00008000  2**0
                  CONTENTS, ALLOC, LOAD, READONLY, DATA
  1 .text         00004248  08000188  08000188  00008188  2**2
                  CONTENTS, ALLOC, LOAD, READONLY, CODE
  2 .init_array   00000004  080043d0  080043d0  0000c3d0  2**2
                  CONTENTS, ALLOC, LOAD, DATA
  3 .fini_array   00000004  080043d4  080043d4  0000c3d4  2**2
                  CONTENTS, ALLOC, LOAD, DATA
  4 .data         00000028  20000000  080043d8  00010000  2**2
                  CONTENTS, ALLOC, LOAD, DATA
  5 .bss          0000c97c  20000028  20000028  00010028  2**3
                  ALLOC
  6 ._user_heap_stack 00000400  2000c9a4  2000c9a4  00010028  2**0
                  ALLOC
  7 .ARM.attributes 0000002d  00000000  00000000  00010028  2**0
                  CONTENTS, READONLY
  8 .comment      0000002a  00000000  00000000  00010055  2**0
                  CONTENTS, READONLY
  9 .debug_line   00000074  00000000  00000000  0001007f  2**0
                  CONTENTS, READONLY, DEBUGGING
 10 .debug_info   0000007a  00000000  00000000  000100f3  2**0
                  CONTENTS, READONLY, DEBUGGING
 11 .debug_abbrev 00000012  00000000  00000000  0001016d  2**0
                  CONTENTS, READONLY, DEBUGGING
 12 .debug_aranges 00000028  00000000  00000000  00010180  2**3
                  CONTENTS, READONLY, DEBUGGING
 13 .debug_ranges 00000020  00000000  00000000  000101a8  2**3
                  CONTENTS, READONLY, DEBUGGING
 14 .debug_frame  000000e0  00000000  00000000  000101c8  2**2
                  CONTENTS, READONLY, DEBUGGING

Disassembly of section .text:

08000188 <__do_global_dtors_aux>:
 8000188:	f240 0328 	movw	r3, #40	; 0x28
 800018c:	f2c2 0300 	movt	r3, #8192	; 0x2000
 8000190:	781a      	ldrb	r2, [r3, #0]
 8000192:	b90a      	cbnz	r2, 8000198 <__do_global_dtors_aux+0x10>
 8000194:	2001      	movs	r0, #1
 8000196:	7018      	strb	r0, [r3, #0]
 8000198:	4770      	bx	lr
 800019a:	bf00      	nop

0800019c <frame_dummy>:
 800019c:	f240 0028 	movw	r0, #40	; 0x28
 80001a0:	f2c2 0000 	movt	r0, #8192	; 0x2000
 80001a4:	b508      	push	{r3, lr}
 80001a6:	6803      	ldr	r3, [r0, #0]
 80001a8:	b12b      	cbz	r3, 80001b6 <frame_dummy+0x1a>
 80001aa:	f240 0300 	movw	r3, #0
 80001ae:	f2c0 0300 	movt	r3, #0
 80001b2:	b103      	cbz	r3, 80001b6 <frame_dummy+0x1a>
 80001b4:	4798      	blx	r3
 80001b6:	bd08      	pop	{r3, pc}

080001b8 <__libc_init_array>:
 80001b8:	b570      	push	{r4, r5, r6, lr}
 80001ba:	f244 36d0 	movw	r6, #17360	; 0x43d0
 80001be:	f244 35d0 	movw	r5, #17360	; 0x43d0
 80001c2:	f6c0 0600 	movt	r6, #2048	; 0x800
 80001c6:	f6c0 0500 	movt	r5, #2048	; 0x800
 80001ca:	1b76      	subs	r6, r6, r5
 80001cc:	10b6      	asrs	r6, r6, #2
 80001ce:	d006      	beq.n	80001de <__libc_init_array+0x26>
 80001d0:	2400      	movs	r4, #0
 80001d2:	f855 3b04 	ldr.w	r3, [r5], #4
 80001d6:	3401      	adds	r4, #1
 80001d8:	4798      	blx	r3
 80001da:	42a6      	cmp	r6, r4
 80001dc:	d1f9      	bne.n	80001d2 <__libc_init_array+0x1a>
 80001de:	f244 36d4 	movw	r6, #17364	; 0x43d4
 80001e2:	f244 35d0 	movw	r5, #17360	; 0x43d0
 80001e6:	f6c0 0600 	movt	r6, #2048	; 0x800
 80001ea:	f6c0 0500 	movt	r5, #2048	; 0x800
 80001ee:	1b76      	subs	r6, r6, r5
 80001f0:	f004 f8e2 	bl	80043b8 <_init>
 80001f4:	10b6      	asrs	r6, r6, #2
 80001f6:	d006      	beq.n	8000206 <__libc_init_array+0x4e>
 80001f8:	2400      	movs	r4, #0
 80001fa:	f855 3b04 	ldr.w	r3, [r5], #4
 80001fe:	3401      	adds	r4, #1
 8000200:	4798      	blx	r3
 8000202:	42a6      	cmp	r6, r4
 8000204:	d1f9      	bne.n	80001fa <__libc_init_array+0x42>
 8000206:	bd70      	pop	{r4, r5, r6, pc}

08000208 <memcmp>:
 8000208:	2a03      	cmp	r2, #3
 800020a:	b470      	push	{r4, r5, r6}
 800020c:	4604      	mov	r4, r0
 800020e:	460d      	mov	r5, r1
 8000210:	d926      	bls.n	8000260 <memcmp+0x58>
 8000212:	ea41 0300 	orr.w	r3, r1, r0
 8000216:	f013 0f03 	tst.w	r3, #3
 800021a:	d013      	beq.n	8000244 <memcmp+0x3c>
 800021c:	7820      	ldrb	r0, [r4, #0]
 800021e:	782b      	ldrb	r3, [r5, #0]
 8000220:	4298      	cmp	r0, r3
 8000222:	bf08      	it	eq
 8000224:	4629      	moveq	r1, r5
 8000226:	d006      	beq.n	8000236 <memcmp+0x2e>
 8000228:	e01e      	b.n	8000268 <memcmp+0x60>
 800022a:	f814 0f01 	ldrb.w	r0, [r4, #1]!
 800022e:	f811 3f01 	ldrb.w	r3, [r1, #1]!
 8000232:	4298      	cmp	r0, r3
 8000234:	d118      	bne.n	8000268 <memcmp+0x60>
 8000236:	2a01      	cmp	r2, #1
 8000238:	f102 32ff 	add.w	r2, r2, #4294967295
 800023c:	d1f5      	bne.n	800022a <memcmp+0x22>
 800023e:	2000      	movs	r0, #0
 8000240:	bc70      	pop	{r4, r5, r6}
 8000242:	4770      	bx	lr
 8000244:	460b      	mov	r3, r1
 8000246:	4604      	mov	r4, r0
 8000248:	f851 5b04 	ldr.w	r5, [r1], #4
 800024c:	f850 6b04 	ldr.w	r6, [r0], #4
 8000250:	42ae      	cmp	r6, r5
 8000252:	d104      	bne.n	800025e <memcmp+0x56>
 8000254:	3a04      	subs	r2, #4
 8000256:	4604      	mov	r4, r0
 8000258:	2a03      	cmp	r2, #3
 800025a:	460b      	mov	r3, r1
 800025c:	d8f2      	bhi.n	8000244 <memcmp+0x3c>
 800025e:	461d      	mov	r5, r3
 8000260:	4610      	mov	r0, r2
 8000262:	2a00      	cmp	r2, #0
 8000264:	d1da      	bne.n	800021c <memcmp+0x14>
 8000266:	e7eb      	b.n	8000240 <memcmp+0x38>
 8000268:	1ac0      	subs	r0, r0, r3
 800026a:	e7e9      	b.n	8000240 <memcmp+0x38>

0800026c <memcpy>:
 800026c:	2a03      	cmp	r2, #3
 800026e:	e92d 01f0 	stmdb	sp!, {r4, r5, r6, r7, r8}
 8000272:	d809      	bhi.n	8000288 <memcpy+0x1c>
 8000274:	b12a      	cbz	r2, 8000282 <memcpy+0x16>
 8000276:	2300      	movs	r3, #0
 8000278:	5ccc      	ldrb	r4, [r1, r3]
 800027a:	54c4      	strb	r4, [r0, r3]
 800027c:	3301      	adds	r3, #1
 800027e:	4293      	cmp	r3, r2
 8000280:	d1fa      	bne.n	8000278 <memcpy+0xc>
 8000282:	e8bd 01f0 	ldmia.w	sp!, {r4, r5, r6, r7, r8}
 8000286:	4770      	bx	lr
 8000288:	460b      	mov	r3, r1
 800028a:	1882      	adds	r2, r0, r2
 800028c:	4601      	mov	r1, r0
 800028e:	e003      	b.n	8000298 <memcpy+0x2c>
 8000290:	7824      	ldrb	r4, [r4, #0]
 8000292:	3301      	adds	r3, #1
 8000294:	f801 4b01 	strb.w	r4, [r1], #1
 8000298:	f011 0f03 	tst.w	r1, #3
 800029c:	461c      	mov	r4, r3
 800029e:	d1f7      	bne.n	8000290 <memcpy+0x24>
 80002a0:	f013 0503 	ands.w	r5, r3, #3
 80002a4:	d05d      	beq.n	8000362 <memcpy+0xf6>
 80002a6:	426e      	negs	r6, r5
 80002a8:	f1c5 0c04 	rsb	ip, r5, #4
 80002ac:	00ed      	lsls	r5, r5, #3
 80002ae:	599b      	ldr	r3, [r3, r6]
 80002b0:	ea4f 0ccc 	mov.w	ip, ip, lsl #3
 80002b4:	e008      	b.n	80002c8 <memcpy+0x5c>
 80002b6:	3404      	adds	r4, #4
 80002b8:	59a7      	ldr	r7, [r4, r6]
 80002ba:	463b      	mov	r3, r7
 80002bc:	fa07 f70c 	lsl.w	r7, r7, ip
 80002c0:	ea48 0707 	orr.w	r7, r8, r7
 80002c4:	f841 7b04 	str.w	r7, [r1], #4
 80002c8:	1a57      	subs	r7, r2, r1
 80002ca:	fa23 f805 	lsr.w	r8, r3, r5
 80002ce:	2f03      	cmp	r7, #3
 80002d0:	dcf1      	bgt.n	80002b6 <memcpy+0x4a>
 80002d2:	e003      	b.n	80002dc <memcpy+0x70>
 80002d4:	f814 3b01 	ldrb.w	r3, [r4], #1
 80002d8:	f801 3b01 	strb.w	r3, [r1], #1
 80002dc:	428a      	cmp	r2, r1
 80002de:	d8f9      	bhi.n	80002d4 <memcpy+0x68>
 80002e0:	e7cf      	b.n	8000282 <memcpy+0x16>
 80002e2:	f853 4c40 	ldr.w	r4, [r3, #-64]
 80002e6:	f841 4c40 	str.w	r4, [r1, #-64]
 80002ea:	f853 4c3c 	ldr.w	r4, [r3, #-60]
 80002ee:	f841 4c3c 	str.w	r4, [r1, #-60]
 80002f2:	f853 4c38 	ldr.w	r4, [r3, #-56]
 80002f6:	f841 4c38 	str.w	r4, [r1, #-56]
 80002fa:	f853 4c34 	ldr.w	r4, [r3, #-52]
 80002fe:	f841 4c34 	str.w	r4, [r1, #-52]
 8000302:	f853 4c30 	ldr.w	r4, [r3, #-48]
 8000306:	f841 4c30 	str.w	r4, [r1, #-48]
 800030a:	f853 4c2c 	ldr.w	r4, [r3, #-44]
 800030e:	f841 4c2c 	str.w	r4, [r1, #-44]
 8000312:	f853 4c28 	ldr.w	r4, [r3, #-40]
 8000316:	f841 4c28 	str.w	r4, [r1, #-40]
 800031a:	f853 4c24 	ldr.w	r4, [r3, #-36]
 800031e:	f841 4c24 	str.w	r4, [r1, #-36]
 8000322:	f853 4c20 	ldr.w	r4, [r3, #-32]
 8000326:	f841 4c20 	str.w	r4, [r1, #-32]
 800032a:	f853 4c1c 	ldr.w	r4, [r3, #-28]
 800032e:	f841 4c1c 	str.w	r4, [r1, #-28]
 8000332:	f853 4c18 	ldr.w	r4, [r3, #-24]
 8000336:	f841 4c18 	str.w	r4, [r1, #-24]
 800033a:	f853 4c14 	ldr.w	r4, [r3, #-20]
 800033e:	f841 4c14 	str.w	r4, [r1, #-20]
 8000342:	f853 4c10 	ldr.w	r4, [r3, #-16]
 8000346:	f841 4c10 	str.w	r4, [r1, #-16]
 800034a:	f853 4c0c 	ldr.w	r4, [r3, #-12]
 800034e:	f841 4c0c 	str.w	r4, [r1, #-12]
 8000352:	f853 4c08 	ldr.w	r4, [r3, #-8]
 8000356:	f841 4c08 	str.w	r4, [r1, #-8]
 800035a:	f853 4c04 	ldr.w	r4, [r3, #-4]
 800035e:	f841 4c04 	str.w	r4, [r1, #-4]
 8000362:	1a56      	subs	r6, r2, r1
 8000364:	461d      	mov	r5, r3
 8000366:	460c      	mov	r4, r1
 8000368:	3340      	adds	r3, #64	; 0x40
 800036a:	3140      	adds	r1, #64	; 0x40
 800036c:	2e3f      	cmp	r6, #63	; 0x3f
 800036e:	dcb8      	bgt.n	80002e2 <memcpy+0x76>
 8000370:	462b      	mov	r3, r5
 8000372:	e00f      	b.n	8000394 <memcpy+0x128>
 8000374:	f853 1c10 	ldr.w	r1, [r3, #-16]
 8000378:	f844 1c10 	str.w	r1, [r4, #-16]
 800037c:	f853 1c0c 	ldr.w	r1, [r3, #-12]
 8000380:	f844 1c0c 	str.w	r1, [r4, #-12]
 8000384:	f853 1c08 	ldr.w	r1, [r3, #-8]
 8000388:	f844 1c08 	str.w	r1, [r4, #-8]
 800038c:	f853 1c04 	ldr.w	r1, [r3, #-4]
 8000390:	f844 1c04 	str.w	r1, [r4, #-4]
 8000394:	1b16      	subs	r6, r2, r4
 8000396:	4621      	mov	r1, r4
 8000398:	461d      	mov	r5, r3
 800039a:	3410      	adds	r4, #16
 800039c:	3310      	adds	r3, #16
 800039e:	2e0f      	cmp	r6, #15
 80003a0:	dce8      	bgt.n	8000374 <memcpy+0x108>
 80003a2:	462b      	mov	r3, r5
 80003a4:	e002      	b.n	80003ac <memcpy+0x140>
 80003a6:	6824      	ldr	r4, [r4, #0]
 80003a8:	f841 4b04 	str.w	r4, [r1], #4
 80003ac:	1a55      	subs	r5, r2, r1
 80003ae:	461c      	mov	r4, r3
 80003b0:	2d03      	cmp	r5, #3
 80003b2:	f103 0304 	add.w	r3, r3, #4
 80003b6:	dcf6      	bgt.n	80003a6 <memcpy+0x13a>
 80003b8:	e790      	b.n	80002dc <memcpy+0x70>
 80003ba:	bf00      	nop

080003bc <memset>:
 80003bc:	2a03      	cmp	r2, #3
 80003be:	b2c9      	uxtb	r1, r1
 80003c0:	b470      	push	{r4, r5, r6}
 80003c2:	d808      	bhi.n	80003d6 <memset+0x1a>
 80003c4:	b12a      	cbz	r2, 80003d2 <memset+0x16>
 80003c6:	4603      	mov	r3, r0
 80003c8:	1812      	adds	r2, r2, r0
 80003ca:	f803 1b01 	strb.w	r1, [r3], #1
 80003ce:	4293      	cmp	r3, r2
 80003d0:	d1fb      	bne.n	80003ca <memset+0xe>
 80003d2:	bc70      	pop	{r4, r5, r6}
 80003d4:	4770      	bx	lr
 80003d6:	1882      	adds	r2, r0, r2
 80003d8:	4604      	mov	r4, r0
 80003da:	e001      	b.n	80003e0 <memset+0x24>
 80003dc:	f804 1b01 	strb.w	r1, [r4], #1
 80003e0:	f014 0f03 	tst.w	r4, #3
 80003e4:	d1fa      	bne.n	80003dc <memset+0x20>
 80003e6:	f04f 3301 	mov.w	r3, #16843009	; 0x1010101
 80003ea:	fb03 f301 	mul.w	r3, r3, r1
 80003ee:	e01f      	b.n	8000430 <memset+0x74>
 80003f0:	f844 3c40 	str.w	r3, [r4, #-64]
 80003f4:	f844 3c3c 	str.w	r3, [r4, #-60]
 80003f8:	f844 3c38 	str.w	r3, [r4, #-56]
 80003fc:	f844 3c34 	str.w	r3, [r4, #-52]
 8000400:	f844 3c30 	str.w	r3, [r4, #-48]
 8000404:	f844 3c2c 	str.w	r3, [r4, #-44]
 8000408:	f844 3c28 	str.w	r3, [r4, #-40]
 800040c:	f844 3c24 	str.w	r3, [r4, #-36]
 8000410:	f844 3c20 	str.w	r3, [r4, #-32]
 8000414:	f844 3c1c 	str.w	r3, [r4, #-28]
 8000418:	f844 3c18 	str.w	r3, [r4, #-24]
 800041c:	f844 3c14 	str.w	r3, [r4, #-20]
 8000420:	f844 3c10 	str.w	r3, [r4, #-16]
 8000424:	f844 3c0c 	str.w	r3, [r4, #-12]
 8000428:	f844 3c08 	str.w	r3, [r4, #-8]
 800042c:	f844 3c04 	str.w	r3, [r4, #-4]
 8000430:	1b16      	subs	r6, r2, r4
 8000432:	4625      	mov	r5, r4
 8000434:	3440      	adds	r4, #64	; 0x40
 8000436:	2e3f      	cmp	r6, #63	; 0x3f
 8000438:	dcda      	bgt.n	80003f0 <memset+0x34>
 800043a:	462c      	mov	r4, r5
 800043c:	e007      	b.n	800044e <memset+0x92>
 800043e:	f844 3c10 	str.w	r3, [r4, #-16]
 8000442:	f844 3c0c 	str.w	r3, [r4, #-12]
 8000446:	f844 3c08 	str.w	r3, [r4, #-8]
 800044a:	f844 3c04 	str.w	r3, [r4, #-4]
 800044e:	1b16      	subs	r6, r2, r4
 8000450:	4625      	mov	r5, r4
 8000452:	3410      	adds	r4, #16
 8000454:	2e0f      	cmp	r6, #15
 8000456:	dcf2      	bgt.n	800043e <memset+0x82>
 8000458:	e001      	b.n	800045e <memset+0xa2>
 800045a:	f845 3b04 	str.w	r3, [r5], #4
 800045e:	1b54      	subs	r4, r2, r5
 8000460:	2c03      	cmp	r4, #3
 8000462:	dcfa      	bgt.n	800045a <memset+0x9e>
 8000464:	e001      	b.n	800046a <memset+0xae>
 8000466:	f805 1b01 	strb.w	r1, [r5], #1
 800046a:	4295      	cmp	r5, r2
 800046c:	d3fb      	bcc.n	8000466 <memset+0xaa>
 800046e:	e7b0      	b.n	80003d2 <memset+0x16>

08000470 <strncpy>:
 8000470:	ea41 0300 	orr.w	r3, r1, r0
 8000474:	f013 0f03 	tst.w	r3, #3
 8000478:	460b      	mov	r3, r1
 800047a:	b470      	push	{r4, r5, r6}
 800047c:	bf14      	ite	ne
 800047e:	2400      	movne	r4, #0
 8000480:	2401      	moveq	r4, #1
 8000482:	2a03      	cmp	r2, #3
 8000484:	bf94      	ite	ls
 8000486:	2400      	movls	r4, #0
 8000488:	f004 0401 	andhi.w	r4, r4, #1
 800048c:	4605      	mov	r5, r0
 800048e:	b9d4      	cbnz	r4, 80004c6 <strncpy+0x56>
 8000490:	b1ba      	cbz	r2, 80004c2 <strncpy+0x52>
 8000492:	780e      	ldrb	r6, [r1, #0]
 8000494:	462b      	mov	r3, r5
 8000496:	3a01      	subs	r2, #1
 8000498:	f803 6b01 	strb.w	r6, [r3], #1
 800049c:	b156      	cbz	r6, 80004b4 <strncpy+0x44>
 800049e:	1cac      	adds	r4, r5, #2
 80004a0:	b17a      	cbz	r2, 80004c2 <strncpy+0x52>
 80004a2:	f811 5f01 	ldrb.w	r5, [r1, #1]!
 80004a6:	4623      	mov	r3, r4
 80004a8:	3a01      	subs	r2, #1
 80004aa:	f804 5c01 	strb.w	r5, [r4, #-1]
 80004ae:	3401      	adds	r4, #1
 80004b0:	2d00      	cmp	r5, #0
 80004b2:	d1f5      	bne.n	80004a0 <strncpy+0x30>
 80004b4:	b12a      	cbz	r2, 80004c2 <strncpy+0x52>
 80004b6:	189a      	adds	r2, r3, r2
 80004b8:	2100      	movs	r1, #0
 80004ba:	f803 1b01 	strb.w	r1, [r3], #1
 80004be:	4293      	cmp	r3, r2
 80004c0:	d1fb      	bne.n	80004ba <strncpy+0x4a>
 80004c2:	bc70      	pop	{r4, r5, r6}
 80004c4:	4770      	bx	lr
 80004c6:	4619      	mov	r1, r3
 80004c8:	f853 4b04 	ldr.w	r4, [r3], #4
 80004cc:	f1a4 3601 	sub.w	r6, r4, #16843009	; 0x1010101
 80004d0:	ea26 0604 	bic.w	r6, r6, r4
 80004d4:	f016 3f80 	tst.w	r6, #2155905152	; 0x80808080
 80004d8:	d1da      	bne.n	8000490 <strncpy+0x20>
 80004da:	3a04      	subs	r2, #4
 80004dc:	f845 4b04 	str.w	r4, [r5], #4
 80004e0:	2a03      	cmp	r2, #3
 80004e2:	4619      	mov	r1, r3
 80004e4:	d8ef      	bhi.n	80004c6 <strncpy+0x56>
 80004e6:	e7d3      	b.n	8000490 <strncpy+0x20>

080004e8 <prvSetupHardware>:
 80004e8:	b580      	push	{r7, lr}
 80004ea:	af00      	add	r7, sp, #0
 80004ec:	f04f 6000 	mov.w	r0, #134217728	; 0x8000000
 80004f0:	f04f 0100 	mov.w	r1, #0
 80004f4:	f001 f800 	bl	80014f8 <NVIC_SetVectorTable>
 80004f8:	f44f 7040 	mov.w	r0, #768	; 0x300
 80004fc:	f000 ff7e 	bl	80013fc <NVIC_PriorityGroupConfig>
 8000500:	f04f 0000 	mov.w	r0, #0
 8000504:	f000 f80c 	bl	8000520 <prvLED_Config>
 8000508:	f04f 0000 	mov.w	r0, #0
 800050c:	f04f 0101 	mov.w	r1, #1
 8000510:	f000 fd1e 	bl	8000f50 <STM_EVAL_PBInit>
 8000514:	f000 f8ea 	bl	80006ec <prvTIM4_Config>
 8000518:	f000 f854 	bl	80005c4 <prvMEMS_Config>
 800051c:	bd80      	pop	{r7, pc}
 800051e:	bf00      	nop

08000520 <prvLED_Config>:
 8000520:	b580      	push	{r7, lr}
 8000522:	b084      	sub	sp, #16
 8000524:	af00      	add	r7, sp, #0
 8000526:	4603      	mov	r3, r0
 8000528:	71fb      	strb	r3, [r7, #7]
 800052a:	f04f 0008 	mov.w	r0, #8
 800052e:	f04f 0101 	mov.w	r1, #1
 8000532:	f001 f9c3 	bl	80018bc <RCC_AHB1PeriphClockCmd>
 8000536:	f44f 4370 	mov.w	r3, #61440	; 0xf000
 800053a:	60bb      	str	r3, [r7, #8]
 800053c:	f04f 0300 	mov.w	r3, #0
 8000540:	73bb      	strb	r3, [r7, #14]
 8000542:	f04f 0303 	mov.w	r3, #3
 8000546:	737b      	strb	r3, [r7, #13]
 8000548:	f04f 0300 	mov.w	r3, #0
 800054c:	73fb      	strb	r3, [r7, #15]
 800054e:	79fb      	ldrb	r3, [r7, #7]
 8000550:	2b00      	cmp	r3, #0
 8000552:	d109      	bne.n	8000568 <prvLED_Config+0x48>
 8000554:	f04f 0301 	mov.w	r3, #1
 8000558:	733b      	strb	r3, [r7, #12]
 800055a:	f107 0308 	add.w	r3, r7, #8
 800055e:	4818      	ldr	r0, [pc, #96]	; (80005c0 <prvLED_Config+0xa0>)
 8000560:	4619      	mov	r1, r3
 8000562:	f001 f895 	bl	8001690 <GPIO_Init>
 8000566:	e027      	b.n	80005b8 <prvLED_Config+0x98>
 8000568:	f44f 4370 	mov.w	r3, #61440	; 0xf000
 800056c:	60bb      	str	r3, [r7, #8]
 800056e:	f04f 0302 	mov.w	r3, #2
 8000572:	733b      	strb	r3, [r7, #12]
 8000574:	f107 0308 	add.w	r3, r7, #8
 8000578:	4811      	ldr	r0, [pc, #68]	; (80005c0 <prvLED_Config+0xa0>)
 800057a:	4619      	mov	r1, r3
 800057c:	f001 f888 	bl	8001690 <GPIO_Init>
 8000580:	480f      	ldr	r0, [pc, #60]	; (80005c0 <prvLED_Config+0xa0>)
 8000582:	f04f 010c 	mov.w	r1, #12
 8000586:	f04f 0202 	mov.w	r2, #2
 800058a:	f001 f941 	bl	8001810 <GPIO_PinAFConfig>
 800058e:	480c      	ldr	r0, [pc, #48]	; (80005c0 <prvLED_Config+0xa0>)
 8000590:	f04f 010d 	mov.w	r1, #13
 8000594:	f04f 0202 	mov.w	r2, #2
 8000598:	f001 f93a 	bl	8001810 <GPIO_PinAFConfig>
 800059c:	4808      	ldr	r0, [pc, #32]	; (80005c0 <prvLED_Config+0xa0>)
 800059e:	f04f 010e 	mov.w	r1, #14
 80005a2:	f04f 0202 	mov.w	r2, #2
 80005a6:	f001 f933 	bl	8001810 <GPIO_PinAFConfig>
 80005aa:	4805      	ldr	r0, [pc, #20]	; (80005c0 <prvLED_Config+0xa0>)
 80005ac:	f04f 010f 	mov.w	r1, #15
 80005b0:	f04f 0202 	mov.w	r2, #2
 80005b4:	f001 f92c 	bl	8001810 <GPIO_PinAFConfig>
 80005b8:	f107 0710 	add.w	r7, r7, #16
 80005bc:	46bd      	mov	sp, r7
 80005be:	bd80      	pop	{r7, pc}
 80005c0:	40020c00 	.word	0x40020c00

080005c4 <prvMEMS_Config>:
 80005c4:	b580      	push	{r7, lr}
 80005c6:	b084      	sub	sp, #16
 80005c8:	af00      	add	r7, sp, #0
 80005ca:	f04f 0300 	mov.w	r3, #0
 80005ce:	72fb      	strb	r3, [r7, #11]
 80005d0:	f04f 0300 	mov.w	r3, #0
 80005d4:	60fb      	str	r3, [r7, #12]
 80005d6:	f04f 0340 	mov.w	r3, #64	; 0x40
 80005da:	713b      	strb	r3, [r7, #4]
 80005dc:	f04f 0300 	mov.w	r3, #0
 80005e0:	717b      	strb	r3, [r7, #5]
 80005e2:	f04f 0307 	mov.w	r3, #7
 80005e6:	71bb      	strb	r3, [r7, #6]
 80005e8:	f04f 0300 	mov.w	r3, #0
 80005ec:	71fb      	strb	r3, [r7, #7]
 80005ee:	f04f 0300 	mov.w	r3, #0
 80005f2:	723b      	strb	r3, [r7, #8]
 80005f4:	f107 0304 	add.w	r3, r7, #4
 80005f8:	4618      	mov	r0, r3
 80005fa:	f000 fd19 	bl	8001030 <LIS302DL_Init>
 80005fe:	f04f 0340 	mov.w	r3, #64	; 0x40
 8000602:	703b      	strb	r3, [r7, #0]
 8000604:	f04f 0310 	mov.w	r3, #16
 8000608:	707b      	strb	r3, [r7, #1]
 800060a:	f04f 0320 	mov.w	r3, #32
 800060e:	70bb      	strb	r3, [r7, #2]
 8000610:	463b      	mov	r3, r7
 8000612:	4618      	mov	r0, r3
 8000614:	f000 fd3a 	bl	800108c <LIS302DL_InterruptConfig>
 8000618:	f04f 0300 	mov.w	r3, #0
 800061c:	60fb      	str	r3, [r7, #12]
 800061e:	e003      	b.n	8000628 <prvMEMS_Config+0x64>
 8000620:	68fb      	ldr	r3, [r7, #12]
 8000622:	f103 0301 	add.w	r3, r3, #1
 8000626:	60fb      	str	r3, [r7, #12]
 8000628:	68fa      	ldr	r2, [r7, #12]
 800062a:	4b2d      	ldr	r3, [pc, #180]	; (80006e0 <prvMEMS_Config+0x11c>)
 800062c:	429a      	cmp	r2, r3
 800062e:	d9f7      	bls.n	8000620 <prvMEMS_Config+0x5c>
 8000630:	f04f 0307 	mov.w	r3, #7
 8000634:	72fb      	strb	r3, [r7, #11]
 8000636:	f107 030b 	add.w	r3, r7, #11
 800063a:	4618      	mov	r0, r3
 800063c:	f04f 0122 	mov.w	r1, #34	; 0x22
 8000640:	f04f 0201 	mov.w	r2, #1
 8000644:	f000 fd4c 	bl	80010e0 <LIS302DL_Write>
 8000648:	f04f 0370 	mov.w	r3, #112	; 0x70
 800064c:	72fb      	strb	r3, [r7, #11]
 800064e:	f107 030b 	add.w	r3, r7, #11
 8000652:	4618      	mov	r0, r3
 8000654:	f04f 0138 	mov.w	r1, #56	; 0x38
 8000658:	f04f 0201 	mov.w	r2, #1
 800065c:	f000 fd40 	bl	80010e0 <LIS302DL_Write>
 8000660:	f04f 03aa 	mov.w	r3, #170	; 0xaa
 8000664:	72fb      	strb	r3, [r7, #11]
 8000666:	f107 030b 	add.w	r3, r7, #11
 800066a:	4618      	mov	r0, r3
 800066c:	f04f 013b 	mov.w	r1, #59	; 0x3b
 8000670:	f04f 0201 	mov.w	r2, #1
 8000674:	f000 fd34 	bl	80010e0 <LIS302DL_Write>
 8000678:	f04f 030a 	mov.w	r3, #10
 800067c:	72fb      	strb	r3, [r7, #11]
 800067e:	f107 030b 	add.w	r3, r7, #11
 8000682:	4618      	mov	r0, r3
 8000684:	f04f 013c 	mov.w	r1, #60	; 0x3c
 8000688:	f04f 0201 	mov.w	r2, #1
 800068c:	f000 fd28 	bl	80010e0 <LIS302DL_Write>
 8000690:	f04f 0303 	mov.w	r3, #3
 8000694:	72fb      	strb	r3, [r7, #11]
 8000696:	f107 030b 	add.w	r3, r7, #11
 800069a:	4618      	mov	r0, r3
 800069c:	f04f 013d 	mov.w	r1, #61	; 0x3d
 80006a0:	f04f 0201 	mov.w	r2, #1
 80006a4:	f000 fd1c 	bl	80010e0 <LIS302DL_Write>
 80006a8:	f04f 037f 	mov.w	r3, #127	; 0x7f
 80006ac:	72fb      	strb	r3, [r7, #11]
 80006ae:	f107 030b 	add.w	r3, r7, #11
 80006b2:	4618      	mov	r0, r3
 80006b4:	f04f 013e 	mov.w	r1, #62	; 0x3e
 80006b8:	f04f 0201 	mov.w	r2, #1
 80006bc:	f000 fd10 	bl	80010e0 <LIS302DL_Write>
 80006c0:	f04f 037f 	mov.w	r3, #127	; 0x7f
 80006c4:	72fb      	strb	r3, [r7, #11]
 80006c6:	f107 030b 	add.w	r3, r7, #11
 80006ca:	4618      	mov	r0, r3
 80006cc:	f04f 013f 	mov.w	r1, #63	; 0x3f
 80006d0:	f04f 0201 	mov.w	r2, #1
 80006d4:	f000 fd04 	bl	80010e0 <LIS302DL_Write>
 80006d8:	f107 0710 	add.w	r7, r7, #16
 80006dc:	46bd      	mov	sp, r7
 80006de:	bd80      	pop	{r7, pc}
 80006e0:	0001fffe 	.word	0x0001fffe

080006e4 <LIS302DL_TIMEOUT_UserCallback>:
 80006e4:	b480      	push	{r7}
 80006e6:	af00      	add	r7, sp, #0
 80006e8:	e7fe      	b.n	80006e8 <LIS302DL_TIMEOUT_UserCallback+0x4>
 80006ea:	bf00      	nop

080006ec <prvTIM4_Config>:
 80006ec:	b580      	push	{r7, lr}
 80006ee:	b08a      	sub	sp, #40	; 0x28
 80006f0:	af00      	add	r7, sp, #0
 80006f2:	f04f 0300 	mov.w	r3, #0
 80006f6:	84fb      	strh	r3, [r7, #38]	; 0x26
 80006f8:	f04f 0004 	mov.w	r0, #4
 80006fc:	f04f 0101 	mov.w	r1, #1
 8000700:	f001 f8fe 	bl	8001900 <RCC_APB1PeriphClockCmd>
 8000704:	4b3c      	ldr	r3, [pc, #240]	; (80007f8 <prvTIM4_Config+0x10c>)
 8000706:	681a      	ldr	r2, [r3, #0]
 8000708:	4b3c      	ldr	r3, [pc, #240]	; (80007fc <prvTIM4_Config+0x110>)
 800070a:	fba3 1302 	umull	r1, r3, r3, r2
 800070e:	ea4f 2313 	mov.w	r3, r3, lsr #8
 8000712:	b29b      	uxth	r3, r3
 8000714:	f103 33ff 	add.w	r3, r3, #4294967295
 8000718:	84fb      	strh	r3, [r7, #38]	; 0x26
 800071a:	f240 736c 	movw	r3, #1900	; 0x76c
 800071e:	60bb      	str	r3, [r7, #8]
 8000720:	8cfb      	ldrh	r3, [r7, #38]	; 0x26
 8000722:	80bb      	strh	r3, [r7, #4]
 8000724:	f04f 0300 	mov.w	r3, #0
 8000728:	81bb      	strh	r3, [r7, #12]
 800072a:	f04f 0300 	mov.w	r3, #0
 800072e:	80fb      	strh	r3, [r7, #6]
 8000730:	f107 0304 	add.w	r3, r7, #4
 8000734:	4832      	ldr	r0, [pc, #200]	; (8000800 <prvTIM4_Config+0x114>)
 8000736:	4619      	mov	r1, r3
 8000738:	f001 faa0 	bl	8001c7c <TIM_TimeBaseInit>
 800073c:	4830      	ldr	r0, [pc, #192]	; (8000800 <prvTIM4_Config+0x114>)
 800073e:	f04f 0101 	mov.w	r1, #1
 8000742:	f001 fb17 	bl	8001d74 <TIM_ARRPreloadConfig>
 8000746:	f04f 0360 	mov.w	r3, #96	; 0x60
 800074a:	823b      	strh	r3, [r7, #16]
 800074c:	f04f 0301 	mov.w	r3, #1
 8000750:	827b      	strh	r3, [r7, #18]
 8000752:	f44f 737a 	mov.w	r3, #1000	; 0x3e8
 8000756:	61bb      	str	r3, [r7, #24]
 8000758:	f04f 0300 	mov.w	r3, #0
 800075c:	83bb      	strh	r3, [r7, #28]
 800075e:	f107 0310 	add.w	r3, r7, #16
 8000762:	4827      	ldr	r0, [pc, #156]	; (8000800 <prvTIM4_Config+0x114>)
 8000764:	4619      	mov	r1, r3
 8000766:	f001 fb45 	bl	8001df4 <TIM_OC1Init>
 800076a:	4825      	ldr	r0, [pc, #148]	; (8000800 <prvTIM4_Config+0x114>)
 800076c:	f04f 0100 	mov.w	r1, #0
 8000770:	f04f 0200 	mov.w	r2, #0
 8000774:	f001 fe16 	bl	80023a4 <TIM_CCxCmd>
 8000778:	4821      	ldr	r0, [pc, #132]	; (8000800 <prvTIM4_Config+0x114>)
 800077a:	f04f 0108 	mov.w	r1, #8
 800077e:	f001 fd95 	bl	80022ac <TIM_OC1PreloadConfig>
 8000782:	f107 0310 	add.w	r3, r7, #16
 8000786:	481e      	ldr	r0, [pc, #120]	; (8000800 <prvTIM4_Config+0x114>)
 8000788:	4619      	mov	r1, r3
 800078a:	f001 fbb7 	bl	8001efc <TIM_OC2Init>
 800078e:	481c      	ldr	r0, [pc, #112]	; (8000800 <prvTIM4_Config+0x114>)
 8000790:	f04f 0104 	mov.w	r1, #4
 8000794:	f04f 0200 	mov.w	r2, #0
 8000798:	f001 fe04 	bl	80023a4 <TIM_CCxCmd>
 800079c:	4818      	ldr	r0, [pc, #96]	; (8000800 <prvTIM4_Config+0x114>)
 800079e:	f04f 0108 	mov.w	r1, #8
 80007a2:	f001 fda1 	bl	80022e8 <TIM_OC2PreloadConfig>
 80007a6:	f107 0310 	add.w	r3, r7, #16
 80007aa:	4815      	ldr	r0, [pc, #84]	; (8000800 <prvTIM4_Config+0x114>)
 80007ac:	4619      	mov	r1, r3
 80007ae:	f001 fc3d 	bl	800202c <TIM_OC3Init>
 80007b2:	4813      	ldr	r0, [pc, #76]	; (8000800 <prvTIM4_Config+0x114>)
 80007b4:	f04f 0108 	mov.w	r1, #8
 80007b8:	f04f 0200 	mov.w	r2, #0
 80007bc:	f001 fdf2 	bl	80023a4 <TIM_CCxCmd>
 80007c0:	480f      	ldr	r0, [pc, #60]	; (8000800 <prvTIM4_Config+0x114>)
 80007c2:	f04f 0108 	mov.w	r1, #8
 80007c6:	f001 fdaf 	bl	8002328 <TIM_OC3PreloadConfig>
 80007ca:	f107 0310 	add.w	r3, r7, #16
 80007ce:	480c      	ldr	r0, [pc, #48]	; (8000800 <prvTIM4_Config+0x114>)
 80007d0:	4619      	mov	r1, r3
 80007d2:	f001 fcc1 	bl	8002158 <TIM_OC4Init>
 80007d6:	480a      	ldr	r0, [pc, #40]	; (8000800 <prvTIM4_Config+0x114>)
 80007d8:	f04f 010c 	mov.w	r1, #12
 80007dc:	f04f 0200 	mov.w	r2, #0
 80007e0:	f001 fde0 	bl	80023a4 <TIM_CCxCmd>
 80007e4:	4806      	ldr	r0, [pc, #24]	; (8000800 <prvTIM4_Config+0x114>)
 80007e6:	f04f 0108 	mov.w	r1, #8
 80007ea:	f001 fdbb 	bl	8002364 <TIM_OC4PreloadConfig>
 80007ee:	f107 0728 	add.w	r7, r7, #40	; 0x28
 80007f2:	46bd      	mov	sp, r7
 80007f4:	bd80      	pop	{r7, pc}
 80007f6:	bf00      	nop
 80007f8:	20000000 	.word	0x20000000
 80007fc:	10624dd3 	.word	0x10624dd3
 8000800:	40000800 	.word	0x40000800

08000804 <main>:
 8000804:	b580      	push	{r7, lr}
 8000806:	b084      	sub	sp, #16
 8000808:	af04      	add	r7, sp, #16
 800080a:	f04f 0001 	mov.w	r0, #1
 800080e:	f04f 0106 	mov.w	r1, #6
 8000812:	f002 f891 	bl	8002938 <xQueueCreate>
 8000816:	4602      	mov	r2, r0
 8000818:	4b5b      	ldr	r3, [pc, #364]	; (8000988 <main+0x184>)
 800081a:	601a      	str	r2, [r3, #0]
 800081c:	f04f 0001 	mov.w	r0, #1
 8000820:	f04f 0100 	mov.w	r1, #0
 8000824:	f002 f888 	bl	8002938 <xQueueCreate>
 8000828:	4602      	mov	r2, r0
 800082a:	4b58      	ldr	r3, [pc, #352]	; (800098c <main+0x188>)
 800082c:	601a      	str	r2, [r3, #0]
 800082e:	4b57      	ldr	r3, [pc, #348]	; (800098c <main+0x188>)
 8000830:	681b      	ldr	r3, [r3, #0]
 8000832:	2b00      	cmp	r3, #0
 8000834:	d00a      	beq.n	800084c <main+0x48>
 8000836:	4b55      	ldr	r3, [pc, #340]	; (800098c <main+0x188>)
 8000838:	681b      	ldr	r3, [r3, #0]
 800083a:	4618      	mov	r0, r3
 800083c:	f04f 0100 	mov.w	r1, #0
 8000840:	f04f 0200 	mov.w	r2, #0
 8000844:	f04f 0300 	mov.w	r3, #0
 8000848:	f002 f8e6 	bl	8002a18 <xQueueGenericSend>
 800084c:	4b4f      	ldr	r3, [pc, #316]	; (800098c <main+0x188>)
 800084e:	681b      	ldr	r3, [r3, #0]
 8000850:	4618      	mov	r0, r3
 8000852:	f04f 0100 	mov.w	r1, #0
 8000856:	f04f 0200 	mov.w	r2, #0
 800085a:	f04f 0300 	mov.w	r3, #0
 800085e:	f002 f9ef 	bl	8002c40 <xQueueGenericReceive>
 8000862:	f7ff fe41 	bl	80004e8 <prvSetupHardware>
 8000866:	4b4a      	ldr	r3, [pc, #296]	; (8000990 <main+0x18c>)
 8000868:	f04f 0200 	mov.w	r2, #0
 800086c:	9200      	str	r2, [sp, #0]
 800086e:	4a49      	ldr	r2, [pc, #292]	; (8000994 <main+0x190>)
 8000870:	9201      	str	r2, [sp, #4]
 8000872:	f04f 0200 	mov.w	r2, #0
 8000876:	9202      	str	r2, [sp, #8]
 8000878:	f04f 0200 	mov.w	r2, #0
 800087c:	9203      	str	r2, [sp, #12]
 800087e:	4846      	ldr	r0, [pc, #280]	; (8000998 <main+0x194>)
 8000880:	4619      	mov	r1, r3
 8000882:	f04f 02c8 	mov.w	r2, #200	; 0xc8
 8000886:	4b45      	ldr	r3, [pc, #276]	; (800099c <main+0x198>)
 8000888:	f002 fbca 	bl	8003020 <xTaskGenericCreate>
 800088c:	4a44      	ldr	r2, [pc, #272]	; (80009a0 <main+0x19c>)
 800088e:	4b45      	ldr	r3, [pc, #276]	; (80009a4 <main+0x1a0>)
 8000890:	f04f 0100 	mov.w	r1, #0
 8000894:	9100      	str	r1, [sp, #0]
 8000896:	4944      	ldr	r1, [pc, #272]	; (80009a8 <main+0x1a4>)
 8000898:	9101      	str	r1, [sp, #4]
 800089a:	f04f 0100 	mov.w	r1, #0
 800089e:	9102      	str	r1, [sp, #8]
 80008a0:	f04f 0100 	mov.w	r1, #0
 80008a4:	9103      	str	r1, [sp, #12]
 80008a6:	483c      	ldr	r0, [pc, #240]	; (8000998 <main+0x194>)
 80008a8:	4611      	mov	r1, r2
 80008aa:	f04f 02c8 	mov.w	r2, #200	; 0xc8
 80008ae:	f002 fbb7 	bl	8003020 <xTaskGenericCreate>
 80008b2:	4a3e      	ldr	r2, [pc, #248]	; (80009ac <main+0x1a8>)
 80008b4:	4b3e      	ldr	r3, [pc, #248]	; (80009b0 <main+0x1ac>)
 80008b6:	f04f 0100 	mov.w	r1, #0
 80008ba:	9100      	str	r1, [sp, #0]
 80008bc:	493d      	ldr	r1, [pc, #244]	; (80009b4 <main+0x1b0>)
 80008be:	9101      	str	r1, [sp, #4]
 80008c0:	f04f 0100 	mov.w	r1, #0
 80008c4:	9102      	str	r1, [sp, #8]
 80008c6:	f04f 0100 	mov.w	r1, #0
 80008ca:	9103      	str	r1, [sp, #12]
 80008cc:	4832      	ldr	r0, [pc, #200]	; (8000998 <main+0x194>)
 80008ce:	4611      	mov	r1, r2
 80008d0:	f04f 02c8 	mov.w	r2, #200	; 0xc8
 80008d4:	f002 fba4 	bl	8003020 <xTaskGenericCreate>
 80008d8:	4a37      	ldr	r2, [pc, #220]	; (80009b8 <main+0x1b4>)
 80008da:	4b38      	ldr	r3, [pc, #224]	; (80009bc <main+0x1b8>)
 80008dc:	f04f 0100 	mov.w	r1, #0
 80008e0:	9100      	str	r1, [sp, #0]
 80008e2:	4937      	ldr	r1, [pc, #220]	; (80009c0 <main+0x1bc>)
 80008e4:	9101      	str	r1, [sp, #4]
 80008e6:	f04f 0100 	mov.w	r1, #0
 80008ea:	9102      	str	r1, [sp, #8]
 80008ec:	f04f 0100 	mov.w	r1, #0
 80008f0:	9103      	str	r1, [sp, #12]
 80008f2:	4829      	ldr	r0, [pc, #164]	; (8000998 <main+0x194>)
 80008f4:	4611      	mov	r1, r2
 80008f6:	f04f 02c8 	mov.w	r2, #200	; 0xc8
 80008fa:	f002 fb91 	bl	8003020 <xTaskGenericCreate>
 80008fe:	4b31      	ldr	r3, [pc, #196]	; (80009c4 <main+0x1c0>)
 8000900:	f04f 0200 	mov.w	r2, #0
 8000904:	9200      	str	r2, [sp, #0]
 8000906:	f04f 0200 	mov.w	r2, #0
 800090a:	9201      	str	r2, [sp, #4]
 800090c:	f04f 0200 	mov.w	r2, #0
 8000910:	9202      	str	r2, [sp, #8]
 8000912:	f04f 0200 	mov.w	r2, #0
 8000916:	9203      	str	r2, [sp, #12]
 8000918:	482b      	ldr	r0, [pc, #172]	; (80009c8 <main+0x1c4>)
 800091a:	4619      	mov	r1, r3
 800091c:	f04f 02c8 	mov.w	r2, #200	; 0xc8
 8000920:	f04f 0300 	mov.w	r3, #0
 8000924:	f002 fb7c 	bl	8003020 <xTaskGenericCreate>
 8000928:	4b28      	ldr	r3, [pc, #160]	; (80009cc <main+0x1c8>)
 800092a:	f04f 0200 	mov.w	r2, #0
 800092e:	9200      	str	r2, [sp, #0]
 8000930:	4a27      	ldr	r2, [pc, #156]	; (80009d0 <main+0x1cc>)
 8000932:	9201      	str	r2, [sp, #4]
 8000934:	f04f 0200 	mov.w	r2, #0
 8000938:	9202      	str	r2, [sp, #8]
 800093a:	f04f 0200 	mov.w	r2, #0
 800093e:	9203      	str	r2, [sp, #12]
 8000940:	4824      	ldr	r0, [pc, #144]	; (80009d4 <main+0x1d0>)
 8000942:	4619      	mov	r1, r3
 8000944:	f04f 02c8 	mov.w	r2, #200	; 0xc8
 8000948:	f04f 0300 	mov.w	r3, #0
 800094c:	f002 fb68 	bl	8003020 <xTaskGenericCreate>
 8000950:	4b21      	ldr	r3, [pc, #132]	; (80009d8 <main+0x1d4>)
 8000952:	f04f 0200 	mov.w	r2, #0
 8000956:	9200      	str	r2, [sp, #0]
 8000958:	4a20      	ldr	r2, [pc, #128]	; (80009dc <main+0x1d8>)
 800095a:	9201      	str	r2, [sp, #4]
 800095c:	f04f 0200 	mov.w	r2, #0
 8000960:	9202      	str	r2, [sp, #8]
 8000962:	f04f 0200 	mov.w	r2, #0
 8000966:	9203      	str	r2, [sp, #12]
 8000968:	481d      	ldr	r0, [pc, #116]	; (80009e0 <main+0x1dc>)
 800096a:	4619      	mov	r1, r3
 800096c:	f04f 02c8 	mov.w	r2, #200	; 0xc8
 8000970:	f04f 0300 	mov.w	r3, #0
 8000974:	f002 fb54 	bl	8003020 <xTaskGenericCreate>
 8000978:	f002 fd2a 	bl	80033d0 <vTaskStartScheduler>
 800097c:	f04f 0300 	mov.w	r3, #0
 8000980:	4618      	mov	r0, r3
 8000982:	46bd      	mov	sp, r7
 8000984:	bd80      	pop	{r7, pc}
 8000986:	bf00      	nop
 8000988:	2000c998 	.word	0x2000c998
 800098c:	2000002c 	.word	0x2000002c
 8000990:	08004318 	.word	0x08004318
 8000994:	2000c988 	.word	0x2000c988
 8000998:	08000b99 	.word	0x08000b99
 800099c:	08004360 	.word	0x08004360
 80009a0:	08004320 	.word	0x08004320
 80009a4:	08004368 	.word	0x08004368
 80009a8:	2000c98c 	.word	0x2000c98c
 80009ac:	08004328 	.word	0x08004328
 80009b0:	08004370 	.word	0x08004370
 80009b4:	2000c990 	.word	0x2000c990
 80009b8:	08004330 	.word	0x08004330
 80009bc:	08004378 	.word	0x08004378
 80009c0:	2000c994 	.word	0x2000c994
 80009c4:	08004338 	.word	0x08004338
 80009c8:	08000bc1 	.word	0x08000bc1
 80009cc:	08004340 	.word	0x08004340
 80009d0:	2000c984 	.word	0x2000c984
 80009d4:	080009e5 	.word	0x080009e5
 80009d8:	08004348 	.word	0x08004348
 80009dc:	2000c99c 	.word	0x2000c99c
 80009e0:	08000a25 	.word	0x08000a25

080009e4 <vMEMSTask>:
 80009e4:	b580      	push	{r7, lr}
 80009e6:	b084      	sub	sp, #16
 80009e8:	af00      	add	r7, sp, #0
 80009ea:	6078      	str	r0, [r7, #4]
 80009ec:	f107 0308 	add.w	r3, r7, #8
 80009f0:	4618      	mov	r0, r3
 80009f2:	f04f 0129 	mov.w	r1, #41	; 0x29
 80009f6:	f04f 0206 	mov.w	r2, #6
 80009fa:	f000 fba5 	bl	8001148 <LIS302DL_Read>
 80009fe:	4b08      	ldr	r3, [pc, #32]	; (8000a20 <vMEMSTask+0x3c>)
 8000a00:	681a      	ldr	r2, [r3, #0]
 8000a02:	f107 0308 	add.w	r3, r7, #8
 8000a06:	4610      	mov	r0, r2
 8000a08:	4619      	mov	r1, r3
 8000a0a:	f04f 0200 	mov.w	r2, #0
 8000a0e:	f04f 0300 	mov.w	r3, #0
 8000a12:	f002 f801 	bl	8002a18 <xQueueGenericSend>
 8000a16:	f04f 007d 	mov.w	r0, #125	; 0x7d
 8000a1a:	f002 fbd7 	bl	80031cc <vTaskDelay>
 8000a1e:	e7e5      	b.n	80009ec <vMEMSTask+0x8>
 8000a20:	2000c998 	.word	0x2000c998

08000a24 <vBALANCETask>:
 8000a24:	b580      	push	{r7, lr}
 8000a26:	b086      	sub	sp, #24
 8000a28:	af00      	add	r7, sp, #0
 8000a2a:	6078      	str	r0, [r7, #4]
 8000a2c:	f04f 0300 	mov.w	r3, #0
 8000a30:	75fb      	strb	r3, [r7, #23]
 8000a32:	f04f 0300 	mov.w	r3, #0
 8000a36:	757b      	strb	r3, [r7, #21]
 8000a38:	4b55      	ldr	r3, [pc, #340]	; (8000b90 <vBALANCETask+0x16c>)
 8000a3a:	681a      	ldr	r2, [r3, #0]
 8000a3c:	f107 030c 	add.w	r3, r7, #12
 8000a40:	4610      	mov	r0, r2
 8000a42:	4619      	mov	r1, r3
 8000a44:	f04f 0200 	mov.w	r2, #0
 8000a48:	f04f 0300 	mov.w	r3, #0
 8000a4c:	f002 f8f8 	bl	8002c40 <xQueueGenericReceive>
 8000a50:	4603      	mov	r3, r0
 8000a52:	2b01      	cmp	r3, #1
 8000a54:	f040 8099 	bne.w	8000b8a <vBALANCETask+0x166>
 8000a58:	484e      	ldr	r0, [pc, #312]	; (8000b94 <vBALANCETask+0x170>)
 8000a5a:	f04f 0100 	mov.w	r1, #0
 8000a5e:	f04f 0200 	mov.w	r2, #0
 8000a62:	f001 fc9f 	bl	80023a4 <TIM_CCxCmd>
 8000a66:	484b      	ldr	r0, [pc, #300]	; (8000b94 <vBALANCETask+0x170>)
 8000a68:	f04f 0104 	mov.w	r1, #4
 8000a6c:	f04f 0200 	mov.w	r2, #0
 8000a70:	f001 fc98 	bl	80023a4 <TIM_CCxCmd>
 8000a74:	4847      	ldr	r0, [pc, #284]	; (8000b94 <vBALANCETask+0x170>)
 8000a76:	f04f 0108 	mov.w	r1, #8
 8000a7a:	f04f 0200 	mov.w	r2, #0
 8000a7e:	f001 fc91 	bl	80023a4 <TIM_CCxCmd>
 8000a82:	4844      	ldr	r0, [pc, #272]	; (8000b94 <vBALANCETask+0x170>)
 8000a84:	f04f 010c 	mov.w	r1, #12
 8000a88:	f04f 0200 	mov.w	r2, #0
 8000a8c:	f001 fc8a 	bl	80023a4 <TIM_CCxCmd>
 8000a90:	7b3b      	ldrb	r3, [r7, #12]
 8000a92:	b2db      	uxtb	r3, r3
 8000a94:	b25b      	sxtb	r3, r3
 8000a96:	2b00      	cmp	r3, #0
 8000a98:	bfb8      	it	lt
 8000a9a:	425b      	neglt	r3, r3
 8000a9c:	75bb      	strb	r3, [r7, #22]
 8000a9e:	7bbb      	ldrb	r3, [r7, #14]
 8000aa0:	b2db      	uxtb	r3, r3
 8000aa2:	b25b      	sxtb	r3, r3
 8000aa4:	2b00      	cmp	r3, #0
 8000aa6:	bfb8      	it	lt
 8000aa8:	425b      	neglt	r3, r3
 8000aaa:	75fb      	strb	r3, [r7, #23]
 8000aac:	7dba      	ldrb	r2, [r7, #22]
 8000aae:	7dfb      	ldrb	r3, [r7, #23]
 8000ab0:	429a      	cmp	r2, r3
 8000ab2:	bf28      	it	cs
 8000ab4:	4613      	movcs	r3, r2
 8000ab6:	b2db      	uxtb	r3, r3
 8000ab8:	757b      	strb	r3, [r7, #21]
 8000aba:	7d7b      	ldrb	r3, [r7, #21]
 8000abc:	b2db      	uxtb	r3, r3
 8000abe:	2b00      	cmp	r3, #0
 8000ac0:	d063      	beq.n	8000b8a <vBALANCETask+0x166>
 8000ac2:	7b3b      	ldrb	r3, [r7, #12]
 8000ac4:	b2db      	uxtb	r3, r3
 8000ac6:	b25b      	sxtb	r3, r3
 8000ac8:	f113 0f02 	cmn.w	r3, #2
 8000acc:	da10      	bge.n	8000af0 <vBALANCETask+0xcc>
 8000ace:	4831      	ldr	r0, [pc, #196]	; (8000b94 <vBALANCETask+0x170>)
 8000ad0:	f04f 010c 	mov.w	r1, #12
 8000ad4:	f04f 0201 	mov.w	r2, #1
 8000ad8:	f001 fc64 	bl	80023a4 <TIM_CCxCmd>
 8000adc:	7d7b      	ldrb	r3, [r7, #21]
 8000ade:	b2db      	uxtb	r3, r3
 8000ae0:	f44f 727a 	mov.w	r2, #1000	; 0x3e8
 8000ae4:	fb92 f3f3 	sdiv	r3, r2, r3
 8000ae8:	482a      	ldr	r0, [pc, #168]	; (8000b94 <vBALANCETask+0x170>)
 8000aea:	4619      	mov	r1, r3
 8000aec:	f001 fbd0 	bl	8002290 <TIM_SetCompare4>
 8000af0:	7b3b      	ldrb	r3, [r7, #12]
 8000af2:	b2db      	uxtb	r3, r3
 8000af4:	b25b      	sxtb	r3, r3
 8000af6:	2b02      	cmp	r3, #2
 8000af8:	dd10      	ble.n	8000b1c <vBALANCETask+0xf8>
 8000afa:	4826      	ldr	r0, [pc, #152]	; (8000b94 <vBALANCETask+0x170>)
 8000afc:	f04f 0104 	mov.w	r1, #4
 8000b00:	f04f 0201 	mov.w	r2, #1
 8000b04:	f001 fc4e 	bl	80023a4 <TIM_CCxCmd>
 8000b08:	7d7b      	ldrb	r3, [r7, #21]
 8000b0a:	b2db      	uxtb	r3, r3
 8000b0c:	f44f 727a 	mov.w	r2, #1000	; 0x3e8
 8000b10:	fb92 f3f3 	sdiv	r3, r2, r3
 8000b14:	481f      	ldr	r0, [pc, #124]	; (8000b94 <vBALANCETask+0x170>)
 8000b16:	4619      	mov	r1, r3
 8000b18:	f001 fb9e 	bl	8002258 <TIM_SetCompare2>
 8000b1c:	7bbb      	ldrb	r3, [r7, #14]
 8000b1e:	b2db      	uxtb	r3, r3
 8000b20:	b25b      	sxtb	r3, r3
 8000b22:	2b02      	cmp	r3, #2
 8000b24:	dd10      	ble.n	8000b48 <vBALANCETask+0x124>
 8000b26:	481b      	ldr	r0, [pc, #108]	; (8000b94 <vBALANCETask+0x170>)
 8000b28:	f04f 0100 	mov.w	r1, #0
 8000b2c:	f04f 0201 	mov.w	r2, #1
 8000b30:	f001 fc38 	bl	80023a4 <TIM_CCxCmd>
 8000b34:	7d7b      	ldrb	r3, [r7, #21]
 8000b36:	b2db      	uxtb	r3, r3
 8000b38:	f44f 727a 	mov.w	r2, #1000	; 0x3e8
 8000b3c:	fb92 f3f3 	sdiv	r3, r2, r3
 8000b40:	4814      	ldr	r0, [pc, #80]	; (8000b94 <vBALANCETask+0x170>)
 8000b42:	4619      	mov	r1, r3
 8000b44:	f001 fb7a 	bl	800223c <TIM_SetCompare1>
 8000b48:	7bbb      	ldrb	r3, [r7, #14]
 8000b4a:	b2db      	uxtb	r3, r3
 8000b4c:	b25b      	sxtb	r3, r3
 8000b4e:	f113 0f02 	cmn.w	r3, #2
 8000b52:	da10      	bge.n	8000b76 <vBALANCETask+0x152>
 8000b54:	480f      	ldr	r0, [pc, #60]	; (8000b94 <vBALANCETask+0x170>)
 8000b56:	f04f 0108 	mov.w	r1, #8
 8000b5a:	f04f 0201 	mov.w	r2, #1
 8000b5e:	f001 fc21 	bl	80023a4 <TIM_CCxCmd>
 8000b62:	7d7b      	ldrb	r3, [r7, #21]
 8000b64:	b2db      	uxtb	r3, r3
 8000b66:	f44f 727a 	mov.w	r2, #1000	; 0x3e8
 8000b6a:	fb92 f3f3 	sdiv	r3, r2, r3
 8000b6e:	4809      	ldr	r0, [pc, #36]	; (8000b94 <vBALANCETask+0x170>)
 8000b70:	4619      	mov	r1, r3
 8000b72:	f001 fb7f 	bl	8002274 <TIM_SetCompare3>
 8000b76:	7d7b      	ldrb	r3, [r7, #21]
 8000b78:	b2db      	uxtb	r3, r3
 8000b7a:	f240 726c 	movw	r2, #1900	; 0x76c
 8000b7e:	fb92 f3f3 	sdiv	r3, r2, r3
 8000b82:	4804      	ldr	r0, [pc, #16]	; (8000b94 <vBALANCETask+0x170>)
 8000b84:	4619      	mov	r1, r3
 8000b86:	f001 f8e7 	bl	8001d58 <TIM_SetAutoreload>
 8000b8a:	f001 fd99 	bl	80026c0 <vPortYieldFromISR>
 8000b8e:	e753      	b.n	8000a38 <vBALANCETask+0x14>
 8000b90:	2000c998 	.word	0x2000c998
 8000b94:	40000800 	.word	0x40000800

08000b98 <vLEDTask>:
 8000b98:	b580      	push	{r7, lr}
 8000b9a:	b084      	sub	sp, #16
 8000b9c:	af00      	add	r7, sp, #0
 8000b9e:	6078      	str	r0, [r7, #4]
 8000ba0:	687b      	ldr	r3, [r7, #4]
 8000ba2:	60fb      	str	r3, [r7, #12]
 8000ba4:	68fb      	ldr	r3, [r7, #12]
 8000ba6:	681b      	ldr	r3, [r3, #0]
 8000ba8:	b2db      	uxtb	r3, r3
 8000baa:	4618      	mov	r0, r3
 8000bac:	f000 f9b2 	bl	8000f14 <STM_EVAL_LEDToggle>
 8000bb0:	68fb      	ldr	r3, [r7, #12]
 8000bb2:	f103 0304 	add.w	r3, r3, #4
 8000bb6:	681b      	ldr	r3, [r3, #0]
 8000bb8:	4618      	mov	r0, r3
 8000bba:	f002 fb07 	bl	80031cc <vTaskDelay>
 8000bbe:	e7f1      	b.n	8000ba4 <vLEDTask+0xc>

08000bc0 <vSWITCHTask>:
 8000bc0:	b580      	push	{r7, lr}
 8000bc2:	b082      	sub	sp, #8
 8000bc4:	af00      	add	r7, sp, #0
 8000bc6:	6078      	str	r0, [r7, #4]
 8000bc8:	4b34      	ldr	r3, [pc, #208]	; (8000c9c <vSWITCHTask+0xdc>)
 8000bca:	681b      	ldr	r3, [r3, #0]
 8000bcc:	4618      	mov	r0, r3
 8000bce:	f04f 0100 	mov.w	r1, #0
 8000bd2:	f04f 0200 	mov.w	r2, #0
 8000bd6:	f04f 0300 	mov.w	r3, #0
 8000bda:	f002 f831 	bl	8002c40 <xQueueGenericReceive>
 8000bde:	4603      	mov	r3, r0
 8000be0:	2b01      	cmp	r3, #1
 8000be2:	d158      	bne.n	8000c96 <vSWITCHTask+0xd6>
 8000be4:	4b2e      	ldr	r3, [pc, #184]	; (8000ca0 <vSWITCHTask+0xe0>)
 8000be6:	681b      	ldr	r3, [r3, #0]
 8000be8:	f083 0201 	eor.w	r2, r3, #1
 8000bec:	4b2c      	ldr	r3, [pc, #176]	; (8000ca0 <vSWITCHTask+0xe0>)
 8000bee:	601a      	str	r2, [r3, #0]
 8000bf0:	4b2b      	ldr	r3, [pc, #172]	; (8000ca0 <vSWITCHTask+0xe0>)
 8000bf2:	681b      	ldr	r3, [r3, #0]
 8000bf4:	2b00      	cmp	r3, #0
 8000bf6:	d127      	bne.n	8000c48 <vSWITCHTask+0x88>
 8000bf8:	4b2a      	ldr	r3, [pc, #168]	; (8000ca4 <vSWITCHTask+0xe4>)
 8000bfa:	681b      	ldr	r3, [r3, #0]
 8000bfc:	4618      	mov	r0, r3
 8000bfe:	f002 fb11 	bl	8003224 <vTaskSuspend>
 8000c02:	4829      	ldr	r0, [pc, #164]	; (8000ca8 <vSWITCHTask+0xe8>)
 8000c04:	f04f 0100 	mov.w	r1, #0
 8000c08:	f001 f8d4 	bl	8001db4 <TIM_Cmd>
 8000c0c:	4b27      	ldr	r3, [pc, #156]	; (8000cac <vSWITCHTask+0xec>)
 8000c0e:	681b      	ldr	r3, [r3, #0]
 8000c10:	4618      	mov	r0, r3
 8000c12:	f002 fb07 	bl	8003224 <vTaskSuspend>
 8000c16:	f04f 0000 	mov.w	r0, #0
 8000c1a:	f7ff fc81 	bl	8000520 <prvLED_Config>
 8000c1e:	4b24      	ldr	r3, [pc, #144]	; (8000cb0 <vSWITCHTask+0xf0>)
 8000c20:	681b      	ldr	r3, [r3, #0]
 8000c22:	4618      	mov	r0, r3
 8000c24:	f002 fb7e 	bl	8003324 <vTaskResume>
 8000c28:	4b21      	ldr	r3, [pc, #132]	; (8000cb0 <vSWITCHTask+0xf0>)
 8000c2a:	685b      	ldr	r3, [r3, #4]
 8000c2c:	4618      	mov	r0, r3
 8000c2e:	f002 fb79 	bl	8003324 <vTaskResume>
 8000c32:	4b1f      	ldr	r3, [pc, #124]	; (8000cb0 <vSWITCHTask+0xf0>)
 8000c34:	689b      	ldr	r3, [r3, #8]
 8000c36:	4618      	mov	r0, r3
 8000c38:	f002 fb74 	bl	8003324 <vTaskResume>
 8000c3c:	4b1c      	ldr	r3, [pc, #112]	; (8000cb0 <vSWITCHTask+0xf0>)
 8000c3e:	68db      	ldr	r3, [r3, #12]
 8000c40:	4618      	mov	r0, r3
 8000c42:	f002 fb6f 	bl	8003324 <vTaskResume>
 8000c46:	e026      	b.n	8000c96 <vSWITCHTask+0xd6>
 8000c48:	4b19      	ldr	r3, [pc, #100]	; (8000cb0 <vSWITCHTask+0xf0>)
 8000c4a:	681b      	ldr	r3, [r3, #0]
 8000c4c:	4618      	mov	r0, r3
 8000c4e:	f002 fae9 	bl	8003224 <vTaskSuspend>
 8000c52:	4b17      	ldr	r3, [pc, #92]	; (8000cb0 <vSWITCHTask+0xf0>)
 8000c54:	685b      	ldr	r3, [r3, #4]
 8000c56:	4618      	mov	r0, r3
 8000c58:	f002 fae4 	bl	8003224 <vTaskSuspend>
 8000c5c:	4b14      	ldr	r3, [pc, #80]	; (8000cb0 <vSWITCHTask+0xf0>)
 8000c5e:	689b      	ldr	r3, [r3, #8]
 8000c60:	4618      	mov	r0, r3
 8000c62:	f002 fadf 	bl	8003224 <vTaskSuspend>
 8000c66:	4b12      	ldr	r3, [pc, #72]	; (8000cb0 <vSWITCHTask+0xf0>)
 8000c68:	68db      	ldr	r3, [r3, #12]
 8000c6a:	4618      	mov	r0, r3
 8000c6c:	f002 fada 	bl	8003224 <vTaskSuspend>
 8000c70:	f04f 0001 	mov.w	r0, #1
 8000c74:	f7ff fc54 	bl	8000520 <prvLED_Config>
 8000c78:	480b      	ldr	r0, [pc, #44]	; (8000ca8 <vSWITCHTask+0xe8>)
 8000c7a:	f04f 0101 	mov.w	r1, #1
 8000c7e:	f001 f899 	bl	8001db4 <TIM_Cmd>
 8000c82:	4b08      	ldr	r3, [pc, #32]	; (8000ca4 <vSWITCHTask+0xe4>)
 8000c84:	681b      	ldr	r3, [r3, #0]
 8000c86:	4618      	mov	r0, r3
 8000c88:	f002 fb4c 	bl	8003324 <vTaskResume>
 8000c8c:	4b07      	ldr	r3, [pc, #28]	; (8000cac <vSWITCHTask+0xec>)
 8000c8e:	681b      	ldr	r3, [r3, #0]
 8000c90:	4618      	mov	r0, r3
 8000c92:	f002 fb47 	bl	8003324 <vTaskResume>
 8000c96:	f001 fd13 	bl	80026c0 <vPortYieldFromISR>
 8000c9a:	e795      	b.n	8000bc8 <vSWITCHTask+0x8>
 8000c9c:	2000002c 	.word	0x2000002c
 8000ca0:	20000030 	.word	0x20000030
 8000ca4:	2000c99c 	.word	0x2000c99c
 8000ca8:	40000800 	.word	0x40000800
 8000cac:	2000c984 	.word	0x2000c984
 8000cb0:	2000c988 	.word	0x2000c988

08000cb4 <vApplicationIdleHook>:
 8000cb4:	b580      	push	{r7, lr}
 8000cb6:	b082      	sub	sp, #8
 8000cb8:	af00      	add	r7, sp, #0
 8000cba:	f001 fc8f 	bl	80025dc <xPortGetFreeHeapSize>
 8000cbe:	4603      	mov	r3, r0
 8000cc0:	607b      	str	r3, [r7, #4]
 8000cc2:	687b      	ldr	r3, [r7, #4]
 8000cc4:	f107 0708 	add.w	r7, r7, #8
 8000cc8:	46bd      	mov	sp, r7
 8000cca:	bd80      	pop	{r7, pc}

08000ccc <vApplicationStackOverflowHook>:
 8000ccc:	b480      	push	{r7}
 8000cce:	b083      	sub	sp, #12
 8000cd0:	af00      	add	r7, sp, #0
 8000cd2:	6078      	str	r0, [r7, #4]
 8000cd4:	6039      	str	r1, [r7, #0]
 8000cd6:	e7fe      	b.n	8000cd6 <vApplicationStackOverflowHook+0xa>

08000cd8 <Reset_Handler>:
  .weak  Reset_Handler
  .type  Reset_Handler, %function
Reset_Handler:  

/* Copy the data segment initializers from flash to SRAM */  
  movs  r1, #0
 8000cd8:	2100      	movs	r1, #0
  b  LoopCopyDataInit
 8000cda:	e003      	b.n	8000ce4 <LoopCopyDataInit>

08000cdc <CopyDataInit>:

CopyDataInit:
  ldr  r3, =_sidata
 8000cdc:	4b0e      	ldr	r3, [pc, #56]	; (8000d18 <LoopFillZerobss+0x20>)
  ldr  r3, [r3, r1]
 8000cde:	585b      	ldr	r3, [r3, r1]
  str  r3, [r0, r1]
 8000ce0:	5043      	str	r3, [r0, r1]
  adds  r1, r1, #4
 8000ce2:	3104      	adds	r1, #4

08000ce4 <LoopCopyDataInit>:
    
LoopCopyDataInit:
  ldr  r0, =_sdata
 8000ce4:	480d      	ldr	r0, [pc, #52]	; (8000d1c <LoopFillZerobss+0x24>)
  ldr  r3, =_edata
 8000ce6:	4b0e      	ldr	r3, [pc, #56]	; (8000d20 <LoopFillZerobss+0x28>)
  adds  r2, r0, r1
 8000ce8:	1842      	adds	r2, r0, r1
  cmp  r2, r3
 8000cea:	429a      	cmp	r2, r3
  bcc  CopyDataInit
 8000cec:	d3f6      	bcc.n	8000cdc <CopyDataInit>
  ldr  r2, =_sbss
 8000cee:	4a0d      	ldr	r2, [pc, #52]	; (8000d24 <LoopFillZerobss+0x2c>)
  b  LoopFillZerobss
 8000cf0:	e002      	b.n	8000cf8 <LoopFillZerobss>

08000cf2 <FillZerobss>:
/* Zero fill the bss segment. */  
FillZerobss:
  movs  r3, #0
 8000cf2:	2300      	movs	r3, #0
  str  r3, [r2], #4
 8000cf4:	f842 3b04 	str.w	r3, [r2], #4

08000cf8 <LoopFillZerobss>:
    
LoopFillZerobss:
  ldr  r3, = _ebss
 8000cf8:	4b0b      	ldr	r3, [pc, #44]	; (8000d28 <LoopFillZerobss+0x30>)
  cmp  r2, r3
 8000cfa:	429a      	cmp	r2, r3
  bcc  FillZerobss
 8000cfc:	d3f9      	bcc.n	8000cf2 <FillZerobss>
  
  
/*FPU settings*/
 ldr     r0, =0xE000ED88           /* Enable CP10,CP11 */
 8000cfe:	480b      	ldr	r0, [pc, #44]	; (8000d2c <LoopFillZerobss+0x34>)
 ldr     r1,[r0]
 8000d00:	6801      	ldr	r1, [r0, #0]
 orr     r1,r1,#(0xF << 20)
 8000d02:	f441 0170 	orr.w	r1, r1, #15728640	; 0xf00000
 str     r1,[r0]
 8000d06:	6001      	str	r1, [r0, #0]
	
/* Call the clock system intitialization function.*/
  bl  SystemInit   
 8000d08:	f000 f856 	bl	8000db8 <SystemInit>
/* Call static constructors */
    bl __libc_init_array
 8000d0c:	f7ff fa54 	bl	80001b8 <__libc_init_array>
/* Call the application's entry point.*/
  bl  main
 8000d10:	f7ff fd78 	bl	8000804 <main>
  bx  lr    
 8000d14:	4770      	bx	lr
 8000d16:	0000      	.short	0x0000
 8000d18:	080043d8 	.word	0x080043d8
 8000d1c:	20000000 	.word	0x20000000
 8000d20:	20000028 	.word	0x20000028
 8000d24:	20000028 	.word	0x20000028
 8000d28:	2000c9a4 	.word	0x2000c9a4
 8000d2c:	e000ed88 	.word	0xe000ed88

08000d30 <ADC_IRQHandler>:
 * @retval None       
*/
    .section  .text.Default_Handler,"ax",%progbits
Default_Handler:
Infinite_Loop:
  b  Infinite_Loop
 8000d30:	e7fe      	b.n	8000d30 <ADC_IRQHandler>
	...

08000d34 <NMI_Handler>:
 8000d34:	b480      	push	{r7}
 8000d36:	af00      	add	r7, sp, #0
 8000d38:	46bd      	mov	sp, r7
 8000d3a:	bc80      	pop	{r7}
 8000d3c:	4770      	bx	lr
 8000d3e:	bf00      	nop

08000d40 <HardFault_Handler>:
 8000d40:	b480      	push	{r7}
 8000d42:	af00      	add	r7, sp, #0
 8000d44:	e7fe      	b.n	8000d44 <HardFault_Handler+0x4>
 8000d46:	bf00      	nop

08000d48 <MemManage_Handler>:
 8000d48:	b480      	push	{r7}
 8000d4a:	af00      	add	r7, sp, #0
 8000d4c:	e7fe      	b.n	8000d4c <MemManage_Handler+0x4>
 8000d4e:	bf00      	nop

08000d50 <BusFault_Handler>:
 8000d50:	b480      	push	{r7}
 8000d52:	af00      	add	r7, sp, #0
 8000d54:	e7fe      	b.n	8000d54 <BusFault_Handler+0x4>
 8000d56:	bf00      	nop

08000d58 <UsageFault_Handler>:
 8000d58:	b480      	push	{r7}
 8000d5a:	af00      	add	r7, sp, #0
 8000d5c:	e7fe      	b.n	8000d5c <UsageFault_Handler+0x4>
 8000d5e:	bf00      	nop

08000d60 <DebugMon_Handler>:
 8000d60:	b480      	push	{r7}
 8000d62:	af00      	add	r7, sp, #0
 8000d64:	46bd      	mov	sp, r7
 8000d66:	bc80      	pop	{r7}
 8000d68:	4770      	bx	lr
 8000d6a:	bf00      	nop

08000d6c <EXTI0_IRQHandler>:
 8000d6c:	b580      	push	{r7, lr}
 8000d6e:	af00      	add	r7, sp, #0
 8000d70:	4b0f      	ldr	r3, [pc, #60]	; (8000db0 <EXTI0_IRQHandler+0x44>)
 8000d72:	f04f 0200 	mov.w	r2, #0
 8000d76:	601a      	str	r2, [r3, #0]
 8000d78:	f04f 0001 	mov.w	r0, #1
 8000d7c:	f000 fc50 	bl	8001620 <EXTI_GetITStatus>
 8000d80:	4603      	mov	r3, r0
 8000d82:	2b00      	cmp	r3, #0
 8000d84:	d013      	beq.n	8000dae <EXTI0_IRQHandler+0x42>
 8000d86:	4b0b      	ldr	r3, [pc, #44]	; (8000db4 <EXTI0_IRQHandler+0x48>)
 8000d88:	681b      	ldr	r3, [r3, #0]
 8000d8a:	4618      	mov	r0, r3
 8000d8c:	f04f 0100 	mov.w	r1, #0
 8000d90:	4a07      	ldr	r2, [pc, #28]	; (8000db0 <EXTI0_IRQHandler+0x44>)
 8000d92:	f04f 0300 	mov.w	r3, #0
 8000d96:	f001 fee9 	bl	8002b6c <xQueueGenericSendFromISR>
 8000d9a:	f04f 0001 	mov.w	r0, #1
 8000d9e:	f000 fc69 	bl	8001674 <EXTI_ClearITPendingBit>
 8000da2:	4b03      	ldr	r3, [pc, #12]	; (8000db0 <EXTI0_IRQHandler+0x44>)
 8000da4:	681b      	ldr	r3, [r3, #0]
 8000da6:	2b00      	cmp	r3, #0
 8000da8:	d001      	beq.n	8000dae <EXTI0_IRQHandler+0x42>
 8000daa:	f001 fc89 	bl	80026c0 <vPortYieldFromISR>
 8000dae:	bd80      	pop	{r7, pc}
 8000db0:	2000c9a0 	.word	0x2000c9a0
 8000db4:	2000002c 	.word	0x2000002c

08000db8 <SystemInit>:
 8000db8:	b580      	push	{r7, lr}
 8000dba:	af00      	add	r7, sp, #0
 8000dbc:	4b12      	ldr	r3, [pc, #72]	; (8000e08 <SystemInit+0x50>)
 8000dbe:	4a12      	ldr	r2, [pc, #72]	; (8000e08 <SystemInit+0x50>)
 8000dc0:	6812      	ldr	r2, [r2, #0]
 8000dc2:	f042 0201 	orr.w	r2, r2, #1
 8000dc6:	601a      	str	r2, [r3, #0]
 8000dc8:	4b0f      	ldr	r3, [pc, #60]	; (8000e08 <SystemInit+0x50>)
 8000dca:	f04f 0200 	mov.w	r2, #0
 8000dce:	609a      	str	r2, [r3, #8]
 8000dd0:	4a0d      	ldr	r2, [pc, #52]	; (8000e08 <SystemInit+0x50>)
 8000dd2:	4b0d      	ldr	r3, [pc, #52]	; (8000e08 <SystemInit+0x50>)
 8000dd4:	681b      	ldr	r3, [r3, #0]
 8000dd6:	f023 7384 	bic.w	r3, r3, #17301504	; 0x1080000
 8000dda:	f423 3380 	bic.w	r3, r3, #65536	; 0x10000
 8000dde:	6013      	str	r3, [r2, #0]
 8000de0:	4b09      	ldr	r3, [pc, #36]	; (8000e08 <SystemInit+0x50>)
 8000de2:	4a0a      	ldr	r2, [pc, #40]	; (8000e0c <SystemInit+0x54>)
 8000de4:	605a      	str	r2, [r3, #4]
 8000de6:	4b08      	ldr	r3, [pc, #32]	; (8000e08 <SystemInit+0x50>)
 8000de8:	4a07      	ldr	r2, [pc, #28]	; (8000e08 <SystemInit+0x50>)
 8000dea:	6812      	ldr	r2, [r2, #0]
 8000dec:	f422 2280 	bic.w	r2, r2, #262144	; 0x40000
 8000df0:	601a      	str	r2, [r3, #0]
 8000df2:	4b05      	ldr	r3, [pc, #20]	; (8000e08 <SystemInit+0x50>)
 8000df4:	f04f 0200 	mov.w	r2, #0
 8000df8:	60da      	str	r2, [r3, #12]
 8000dfa:	f000 f80b 	bl	8000e14 <SetSysClock>
 8000dfe:	4b04      	ldr	r3, [pc, #16]	; (8000e10 <SystemInit+0x58>)
 8000e00:	f04f 6200 	mov.w	r2, #134217728	; 0x8000000
 8000e04:	609a      	str	r2, [r3, #8]
 8000e06:	bd80      	pop	{r7, pc}
 8000e08:	40023800 	.word	0x40023800
 8000e0c:	24003010 	.word	0x24003010
 8000e10:	e000ed00 	.word	0xe000ed00

08000e14 <SetSysClock>:
 8000e14:	b480      	push	{r7}
 8000e16:	b083      	sub	sp, #12
 8000e18:	af00      	add	r7, sp, #0
 8000e1a:	f04f 0300 	mov.w	r3, #0
 8000e1e:	607b      	str	r3, [r7, #4]
 8000e20:	f04f 0300 	mov.w	r3, #0
 8000e24:	603b      	str	r3, [r7, #0]
 8000e26:	4b37      	ldr	r3, [pc, #220]	; (8000f04 <SetSysClock+0xf0>)
 8000e28:	4a36      	ldr	r2, [pc, #216]	; (8000f04 <SetSysClock+0xf0>)
 8000e2a:	6812      	ldr	r2, [r2, #0]
 8000e2c:	f442 3280 	orr.w	r2, r2, #65536	; 0x10000
 8000e30:	601a      	str	r2, [r3, #0]
 8000e32:	4b34      	ldr	r3, [pc, #208]	; (8000f04 <SetSysClock+0xf0>)
 8000e34:	681b      	ldr	r3, [r3, #0]
 8000e36:	f403 3300 	and.w	r3, r3, #131072	; 0x20000
 8000e3a:	603b      	str	r3, [r7, #0]
 8000e3c:	687b      	ldr	r3, [r7, #4]
 8000e3e:	f103 0301 	add.w	r3, r3, #1
 8000e42:	607b      	str	r3, [r7, #4]
 8000e44:	683b      	ldr	r3, [r7, #0]
 8000e46:	2b00      	cmp	r3, #0
 8000e48:	d103      	bne.n	8000e52 <SetSysClock+0x3e>
 8000e4a:	687b      	ldr	r3, [r7, #4]
 8000e4c:	f5b3 6fa0 	cmp.w	r3, #1280	; 0x500
 8000e50:	d1ef      	bne.n	8000e32 <SetSysClock+0x1e>
 8000e52:	4b2c      	ldr	r3, [pc, #176]	; (8000f04 <SetSysClock+0xf0>)
 8000e54:	681b      	ldr	r3, [r3, #0]
 8000e56:	f403 3300 	and.w	r3, r3, #131072	; 0x20000
 8000e5a:	2b00      	cmp	r3, #0
 8000e5c:	d003      	beq.n	8000e66 <SetSysClock+0x52>
 8000e5e:	f04f 0301 	mov.w	r3, #1
 8000e62:	603b      	str	r3, [r7, #0]
 8000e64:	e002      	b.n	8000e6c <SetSysClock+0x58>
 8000e66:	f04f 0300 	mov.w	r3, #0
 8000e6a:	603b      	str	r3, [r7, #0]
 8000e6c:	683b      	ldr	r3, [r7, #0]
 8000e6e:	2b01      	cmp	r3, #1
 8000e70:	d142      	bne.n	8000ef8 <SetSysClock+0xe4>
 8000e72:	4b24      	ldr	r3, [pc, #144]	; (8000f04 <SetSysClock+0xf0>)
 8000e74:	4a23      	ldr	r2, [pc, #140]	; (8000f04 <SetSysClock+0xf0>)
 8000e76:	6c12      	ldr	r2, [r2, #64]	; 0x40
 8000e78:	f042 5280 	orr.w	r2, r2, #268435456	; 0x10000000
 8000e7c:	641a      	str	r2, [r3, #64]	; 0x40
 8000e7e:	4b22      	ldr	r3, [pc, #136]	; (8000f08 <SetSysClock+0xf4>)
 8000e80:	4a21      	ldr	r2, [pc, #132]	; (8000f08 <SetSysClock+0xf4>)
 8000e82:	6812      	ldr	r2, [r2, #0]
 8000e84:	f442 4280 	orr.w	r2, r2, #16384	; 0x4000
 8000e88:	601a      	str	r2, [r3, #0]
 8000e8a:	4b1e      	ldr	r3, [pc, #120]	; (8000f04 <SetSysClock+0xf0>)
 8000e8c:	4a1d      	ldr	r2, [pc, #116]	; (8000f04 <SetSysClock+0xf0>)
 8000e8e:	6892      	ldr	r2, [r2, #8]
 8000e90:	609a      	str	r2, [r3, #8]
 8000e92:	4b1c      	ldr	r3, [pc, #112]	; (8000f04 <SetSysClock+0xf0>)
 8000e94:	4a1b      	ldr	r2, [pc, #108]	; (8000f04 <SetSysClock+0xf0>)
 8000e96:	6892      	ldr	r2, [r2, #8]
 8000e98:	f442 4200 	orr.w	r2, r2, #32768	; 0x8000
 8000e9c:	609a      	str	r2, [r3, #8]
 8000e9e:	4b19      	ldr	r3, [pc, #100]	; (8000f04 <SetSysClock+0xf0>)
 8000ea0:	4a18      	ldr	r2, [pc, #96]	; (8000f04 <SetSysClock+0xf0>)
 8000ea2:	6892      	ldr	r2, [r2, #8]
 8000ea4:	f442 52a0 	orr.w	r2, r2, #5120	; 0x1400
 8000ea8:	609a      	str	r2, [r3, #8]
 8000eaa:	4b16      	ldr	r3, [pc, #88]	; (8000f04 <SetSysClock+0xf0>)
 8000eac:	4a17      	ldr	r2, [pc, #92]	; (8000f0c <SetSysClock+0xf8>)
 8000eae:	605a      	str	r2, [r3, #4]
 8000eb0:	4b14      	ldr	r3, [pc, #80]	; (8000f04 <SetSysClock+0xf0>)
 8000eb2:	4a14      	ldr	r2, [pc, #80]	; (8000f04 <SetSysClock+0xf0>)
 8000eb4:	6812      	ldr	r2, [r2, #0]
 8000eb6:	f042 7280 	orr.w	r2, r2, #16777216	; 0x1000000
 8000eba:	601a      	str	r2, [r3, #0]
 8000ebc:	bf00      	nop
 8000ebe:	4b11      	ldr	r3, [pc, #68]	; (8000f04 <SetSysClock+0xf0>)
 8000ec0:	681b      	ldr	r3, [r3, #0]
 8000ec2:	f003 7300 	and.w	r3, r3, #33554432	; 0x2000000
 8000ec6:	2b00      	cmp	r3, #0
 8000ec8:	d0f9      	beq.n	8000ebe <SetSysClock+0xaa>
 8000eca:	4b11      	ldr	r3, [pc, #68]	; (8000f10 <SetSysClock+0xfc>)
 8000ecc:	f240 6205 	movw	r2, #1541	; 0x605
 8000ed0:	601a      	str	r2, [r3, #0]
 8000ed2:	4b0c      	ldr	r3, [pc, #48]	; (8000f04 <SetSysClock+0xf0>)
 8000ed4:	4a0b      	ldr	r2, [pc, #44]	; (8000f04 <SetSysClock+0xf0>)
 8000ed6:	6892      	ldr	r2, [r2, #8]
 8000ed8:	f022 0203 	bic.w	r2, r2, #3
 8000edc:	609a      	str	r2, [r3, #8]
 8000ede:	4b09      	ldr	r3, [pc, #36]	; (8000f04 <SetSysClock+0xf0>)
 8000ee0:	4a08      	ldr	r2, [pc, #32]	; (8000f04 <SetSysClock+0xf0>)
 8000ee2:	6892      	ldr	r2, [r2, #8]
 8000ee4:	f042 0202 	orr.w	r2, r2, #2
 8000ee8:	609a      	str	r2, [r3, #8]
 8000eea:	bf00      	nop
 8000eec:	4b05      	ldr	r3, [pc, #20]	; (8000f04 <SetSysClock+0xf0>)
 8000eee:	689b      	ldr	r3, [r3, #8]
 8000ef0:	f003 030c 	and.w	r3, r3, #12
 8000ef4:	2b08      	cmp	r3, #8
 8000ef6:	d1f9      	bne.n	8000eec <SetSysClock+0xd8>
 8000ef8:	f107 070c 	add.w	r7, r7, #12
 8000efc:	46bd      	mov	sp, r7
 8000efe:	bc80      	pop	{r7}
 8000f00:	4770      	bx	lr
 8000f02:	bf00      	nop
 8000f04:	40023800 	.word	0x40023800
 8000f08:	40007000 	.word	0x40007000
 8000f0c:	07405419 	.word	0x07405419
 8000f10:	40023c00 	.word	0x40023c00

08000f14 <STM_EVAL_LEDToggle>:
 8000f14:	b480      	push	{r7}
 8000f16:	b083      	sub	sp, #12
 8000f18:	af00      	add	r7, sp, #0
 8000f1a:	4603      	mov	r3, r0
 8000f1c:	71fb      	strb	r3, [r7, #7]
 8000f1e:	79fa      	ldrb	r2, [r7, #7]
 8000f20:	4b09      	ldr	r3, [pc, #36]	; (8000f48 <STM_EVAL_LEDToggle+0x34>)
 8000f22:	f853 3022 	ldr.w	r3, [r3, r2, lsl #2]
 8000f26:	79f9      	ldrb	r1, [r7, #7]
 8000f28:	4a07      	ldr	r2, [pc, #28]	; (8000f48 <STM_EVAL_LEDToggle+0x34>)
 8000f2a:	f852 2021 	ldr.w	r2, [r2, r1, lsl #2]
 8000f2e:	6951      	ldr	r1, [r2, #20]
 8000f30:	79f8      	ldrb	r0, [r7, #7]
 8000f32:	4a06      	ldr	r2, [pc, #24]	; (8000f4c <STM_EVAL_LEDToggle+0x38>)
 8000f34:	f832 2010 	ldrh.w	r2, [r2, r0, lsl #1]
 8000f38:	ea81 0202 	eor.w	r2, r1, r2
 8000f3c:	615a      	str	r2, [r3, #20]
 8000f3e:	f107 070c 	add.w	r7, r7, #12
 8000f42:	46bd      	mov	sp, r7
 8000f44:	bc80      	pop	{r7}
 8000f46:	4770      	bx	lr
 8000f48:	20000004 	.word	0x20000004
 8000f4c:	08004380 	.word	0x08004380

08000f50 <STM_EVAL_PBInit>:
 8000f50:	b580      	push	{r7, lr}
 8000f52:	b088      	sub	sp, #32
 8000f54:	af00      	add	r7, sp, #0
 8000f56:	4602      	mov	r2, r0
 8000f58:	460b      	mov	r3, r1
 8000f5a:	71fa      	strb	r2, [r7, #7]
 8000f5c:	71bb      	strb	r3, [r7, #6]
 8000f5e:	79fa      	ldrb	r2, [r7, #7]
 8000f60:	4b2c      	ldr	r3, [pc, #176]	; (8001014 <STM_EVAL_PBInit+0xc4>)
 8000f62:	f853 3022 	ldr.w	r3, [r3, r2, lsl #2]
 8000f66:	4618      	mov	r0, r3
 8000f68:	f04f 0101 	mov.w	r1, #1
 8000f6c:	f000 fca6 	bl	80018bc <RCC_AHB1PeriphClockCmd>
 8000f70:	f44f 4080 	mov.w	r0, #16384	; 0x4000
 8000f74:	f04f 0101 	mov.w	r1, #1
 8000f78:	f000 fce4 	bl	8001944 <RCC_APB2PeriphClockCmd>
 8000f7c:	f04f 0300 	mov.w	r3, #0
 8000f80:	773b      	strb	r3, [r7, #28]
 8000f82:	f04f 0300 	mov.w	r3, #0
 8000f86:	77fb      	strb	r3, [r7, #31]
 8000f88:	79fa      	ldrb	r2, [r7, #7]
 8000f8a:	4b23      	ldr	r3, [pc, #140]	; (8001018 <STM_EVAL_PBInit+0xc8>)
 8000f8c:	f833 3012 	ldrh.w	r3, [r3, r2, lsl #1]
 8000f90:	61bb      	str	r3, [r7, #24]
 8000f92:	79fa      	ldrb	r2, [r7, #7]
 8000f94:	4b21      	ldr	r3, [pc, #132]	; (800101c <STM_EVAL_PBInit+0xcc>)
 8000f96:	f853 2022 	ldr.w	r2, [r3, r2, lsl #2]
 8000f9a:	f107 0318 	add.w	r3, r7, #24
 8000f9e:	4610      	mov	r0, r2
 8000fa0:	4619      	mov	r1, r3
 8000fa2:	f000 fb75 	bl	8001690 <GPIO_Init>
 8000fa6:	79bb      	ldrb	r3, [r7, #6]
 8000fa8:	2b01      	cmp	r3, #1
 8000faa:	d12e      	bne.n	800100a <STM_EVAL_PBInit+0xba>
 8000fac:	79fb      	ldrb	r3, [r7, #7]
 8000fae:	4a1c      	ldr	r2, [pc, #112]	; (8001020 <STM_EVAL_PBInit+0xd0>)
 8000fb0:	5cd2      	ldrb	r2, [r2, r3]
 8000fb2:	79fb      	ldrb	r3, [r7, #7]
 8000fb4:	491b      	ldr	r1, [pc, #108]	; (8001024 <STM_EVAL_PBInit+0xd4>)
 8000fb6:	5ccb      	ldrb	r3, [r1, r3]
 8000fb8:	4610      	mov	r0, r2
 8000fba:	4619      	mov	r1, r3
 8000fbc:	f000 fe10 	bl	8001be0 <SYSCFG_EXTILineConfig>
 8000fc0:	79fa      	ldrb	r2, [r7, #7]
 8000fc2:	4b19      	ldr	r3, [pc, #100]	; (8001028 <STM_EVAL_PBInit+0xd8>)
 8000fc4:	f833 3012 	ldrh.w	r3, [r3, r2, lsl #1]
 8000fc8:	613b      	str	r3, [r7, #16]
 8000fca:	f04f 0300 	mov.w	r3, #0
 8000fce:	753b      	strb	r3, [r7, #20]
 8000fd0:	f04f 0308 	mov.w	r3, #8
 8000fd4:	757b      	strb	r3, [r7, #21]
 8000fd6:	f04f 0301 	mov.w	r3, #1
 8000fda:	75bb      	strb	r3, [r7, #22]
 8000fdc:	f107 0310 	add.w	r3, r7, #16
 8000fe0:	4618      	mov	r0, r3
 8000fe2:	f000 fa9f 	bl	8001524 <EXTI_Init>
 8000fe6:	79fb      	ldrb	r3, [r7, #7]
 8000fe8:	4a10      	ldr	r2, [pc, #64]	; (800102c <STM_EVAL_PBInit+0xdc>)
 8000fea:	5cd3      	ldrb	r3, [r2, r3]
 8000fec:	733b      	strb	r3, [r7, #12]
 8000fee:	f04f 030f 	mov.w	r3, #15
 8000ff2:	737b      	strb	r3, [r7, #13]
 8000ff4:	f04f 030f 	mov.w	r3, #15
 8000ff8:	73bb      	strb	r3, [r7, #14]
 8000ffa:	f04f 0301 	mov.w	r3, #1
 8000ffe:	73fb      	strb	r3, [r7, #15]
 8001000:	f107 030c 	add.w	r3, r7, #12
 8001004:	4618      	mov	r0, r3
 8001006:	f000 fa0b 	bl	8001420 <NVIC_Init>
 800100a:	f107 0720 	add.w	r7, r7, #32
 800100e:	46bd      	mov	sp, r7
 8001010:	bd80      	pop	{r7, pc}
 8001012:	bf00      	nop
 8001014:	0800438c 	.word	0x0800438c
 8001018:	08004388 	.word	0x08004388
 800101c:	20000014 	.word	0x20000014
 8001020:	08004394 	.word	0x08004394
 8001024:	08004398 	.word	0x08004398
 8001028:	08004390 	.word	0x08004390
 800102c:	0800439c 	.word	0x0800439c

08001030 <LIS302DL_Init>:
 8001030:	b580      	push	{r7, lr}
 8001032:	b084      	sub	sp, #16
 8001034:	af00      	add	r7, sp, #0
 8001036:	6078      	str	r0, [r7, #4]
 8001038:	f04f 0300 	mov.w	r3, #0
 800103c:	73fb      	strb	r3, [r7, #15]
 800103e:	f000 f8bf 	bl	80011c0 <LIS302DL_LowLevel_Init>
 8001042:	687b      	ldr	r3, [r7, #4]
 8001044:	785a      	ldrb	r2, [r3, #1]
 8001046:	687b      	ldr	r3, [r7, #4]
 8001048:	781b      	ldrb	r3, [r3, #0]
 800104a:	ea42 0303 	orr.w	r3, r2, r3
 800104e:	b2da      	uxtb	r2, r3
 8001050:	687b      	ldr	r3, [r7, #4]
 8001052:	78db      	ldrb	r3, [r3, #3]
 8001054:	ea42 0303 	orr.w	r3, r2, r3
 8001058:	b2da      	uxtb	r2, r3
 800105a:	687b      	ldr	r3, [r7, #4]
 800105c:	791b      	ldrb	r3, [r3, #4]
 800105e:	ea42 0303 	orr.w	r3, r2, r3
 8001062:	b2da      	uxtb	r2, r3
 8001064:	687b      	ldr	r3, [r7, #4]
 8001066:	789b      	ldrb	r3, [r3, #2]
 8001068:	ea42 0303 	orr.w	r3, r2, r3
 800106c:	b2db      	uxtb	r3, r3
 800106e:	73fb      	strb	r3, [r7, #15]
 8001070:	f107 030f 	add.w	r3, r7, #15
 8001074:	4618      	mov	r0, r3
 8001076:	f04f 0120 	mov.w	r1, #32
 800107a:	f04f 0201 	mov.w	r2, #1
 800107e:	f000 f82f 	bl	80010e0 <LIS302DL_Write>
 8001082:	f107 0710 	add.w	r7, r7, #16
 8001086:	46bd      	mov	sp, r7
 8001088:	bd80      	pop	{r7, pc}
 800108a:	bf00      	nop

0800108c <LIS302DL_InterruptConfig>:
 800108c:	b580      	push	{r7, lr}
 800108e:	b084      	sub	sp, #16
 8001090:	af00      	add	r7, sp, #0
 8001092:	6078      	str	r0, [r7, #4]
 8001094:	f04f 0300 	mov.w	r3, #0
 8001098:	73fb      	strb	r3, [r7, #15]
 800109a:	f107 030f 	add.w	r3, r7, #15
 800109e:	4618      	mov	r0, r3
 80010a0:	f04f 0138 	mov.w	r1, #56	; 0x38
 80010a4:	f04f 0201 	mov.w	r2, #1
 80010a8:	f000 f84e 	bl	8001148 <LIS302DL_Read>
 80010ac:	687b      	ldr	r3, [r7, #4]
 80010ae:	781a      	ldrb	r2, [r3, #0]
 80010b0:	687b      	ldr	r3, [r7, #4]
 80010b2:	785b      	ldrb	r3, [r3, #1]
 80010b4:	ea42 0303 	orr.w	r3, r2, r3
 80010b8:	b2da      	uxtb	r2, r3
 80010ba:	687b      	ldr	r3, [r7, #4]
 80010bc:	789b      	ldrb	r3, [r3, #2]
 80010be:	ea42 0303 	orr.w	r3, r2, r3
 80010c2:	b2db      	uxtb	r3, r3
 80010c4:	73fb      	strb	r3, [r7, #15]
 80010c6:	f107 030f 	add.w	r3, r7, #15
 80010ca:	4618      	mov	r0, r3
 80010cc:	f04f 0138 	mov.w	r1, #56	; 0x38
 80010d0:	f04f 0201 	mov.w	r2, #1
 80010d4:	f000 f804 	bl	80010e0 <LIS302DL_Write>
 80010d8:	f107 0710 	add.w	r7, r7, #16
 80010dc:	46bd      	mov	sp, r7
 80010de:	bd80      	pop	{r7, pc}

080010e0 <LIS302DL_Write>:
 80010e0:	b580      	push	{r7, lr}
 80010e2:	b082      	sub	sp, #8
 80010e4:	af00      	add	r7, sp, #0
 80010e6:	6078      	str	r0, [r7, #4]
 80010e8:	4613      	mov	r3, r2
 80010ea:	460a      	mov	r2, r1
 80010ec:	70fa      	strb	r2, [r7, #3]
 80010ee:	803b      	strh	r3, [r7, #0]
 80010f0:	883b      	ldrh	r3, [r7, #0]
 80010f2:	2b01      	cmp	r3, #1
 80010f4:	d903      	bls.n	80010fe <LIS302DL_Write+0x1e>
 80010f6:	78fb      	ldrb	r3, [r7, #3]
 80010f8:	f043 0340 	orr.w	r3, r3, #64	; 0x40
 80010fc:	70fb      	strb	r3, [r7, #3]
 80010fe:	4811      	ldr	r0, [pc, #68]	; (8001144 <LIS302DL_Write+0x64>)
 8001100:	f04f 0108 	mov.w	r1, #8
 8001104:	f000 fb76 	bl	80017f4 <GPIO_ResetBits>
 8001108:	78fb      	ldrb	r3, [r7, #3]
 800110a:	4618      	mov	r0, r3
 800110c:	f000 f91e 	bl	800134c <LIS302DL_SendByte>
 8001110:	e00c      	b.n	800112c <LIS302DL_Write+0x4c>
 8001112:	687b      	ldr	r3, [r7, #4]
 8001114:	781b      	ldrb	r3, [r3, #0]
 8001116:	4618      	mov	r0, r3
 8001118:	f000 f918 	bl	800134c <LIS302DL_SendByte>
 800111c:	883b      	ldrh	r3, [r7, #0]
 800111e:	f103 33ff 	add.w	r3, r3, #4294967295
 8001122:	803b      	strh	r3, [r7, #0]
 8001124:	687b      	ldr	r3, [r7, #4]
 8001126:	f103 0301 	add.w	r3, r3, #1
 800112a:	607b      	str	r3, [r7, #4]
 800112c:	883b      	ldrh	r3, [r7, #0]
 800112e:	2b00      	cmp	r3, #0
 8001130:	d1ef      	bne.n	8001112 <LIS302DL_Write+0x32>
 8001132:	4804      	ldr	r0, [pc, #16]	; (8001144 <LIS302DL_Write+0x64>)
 8001134:	f04f 0108 	mov.w	r1, #8
 8001138:	f000 fb4e 	bl	80017d8 <GPIO_SetBits>
 800113c:	f107 0708 	add.w	r7, r7, #8
 8001140:	46bd      	mov	sp, r7
 8001142:	bd80      	pop	{r7, pc}
 8001144:	40021000 	.word	0x40021000

08001148 <LIS302DL_Read>:
 8001148:	b580      	push	{r7, lr}
 800114a:	b082      	sub	sp, #8
 800114c:	af00      	add	r7, sp, #0
 800114e:	6078      	str	r0, [r7, #4]
 8001150:	4613      	mov	r3, r2
 8001152:	460a      	mov	r2, r1
 8001154:	70fa      	strb	r2, [r7, #3]
 8001156:	803b      	strh	r3, [r7, #0]
 8001158:	883b      	ldrh	r3, [r7, #0]
 800115a:	2b01      	cmp	r3, #1
 800115c:	d904      	bls.n	8001168 <LIS302DL_Read+0x20>
 800115e:	78fb      	ldrb	r3, [r7, #3]
 8001160:	f063 033f 	orn	r3, r3, #63	; 0x3f
 8001164:	70fb      	strb	r3, [r7, #3]
 8001166:	e003      	b.n	8001170 <LIS302DL_Read+0x28>
 8001168:	78fb      	ldrb	r3, [r7, #3]
 800116a:	f063 037f 	orn	r3, r3, #127	; 0x7f
 800116e:	70fb      	strb	r3, [r7, #3]
 8001170:	4812      	ldr	r0, [pc, #72]	; (80011bc <LIS302DL_Read+0x74>)
 8001172:	f04f 0108 	mov.w	r1, #8
 8001176:	f000 fb3d 	bl	80017f4 <GPIO_ResetBits>
 800117a:	78fb      	ldrb	r3, [r7, #3]
 800117c:	4618      	mov	r0, r3
 800117e:	f000 f8e5 	bl	800134c <LIS302DL_SendByte>
 8001182:	e00f      	b.n	80011a4 <LIS302DL_Read+0x5c>
 8001184:	f04f 0000 	mov.w	r0, #0
 8001188:	f000 f8e0 	bl	800134c <LIS302DL_SendByte>
 800118c:	4603      	mov	r3, r0
 800118e:	461a      	mov	r2, r3
 8001190:	687b      	ldr	r3, [r7, #4]
 8001192:	701a      	strb	r2, [r3, #0]
 8001194:	883b      	ldrh	r3, [r7, #0]
 8001196:	f103 33ff 	add.w	r3, r3, #4294967295
 800119a:	803b      	strh	r3, [r7, #0]
 800119c:	687b      	ldr	r3, [r7, #4]
 800119e:	f103 0301 	add.w	r3, r3, #1
 80011a2:	607b      	str	r3, [r7, #4]
 80011a4:	883b      	ldrh	r3, [r7, #0]
 80011a6:	2b00      	cmp	r3, #0
 80011a8:	d1ec      	bne.n	8001184 <LIS302DL_Read+0x3c>
 80011aa:	4804      	ldr	r0, [pc, #16]	; (80011bc <LIS302DL_Read+0x74>)
 80011ac:	f04f 0108 	mov.w	r1, #8
 80011b0:	f000 fb12 	bl	80017d8 <GPIO_SetBits>
 80011b4:	f107 0708 	add.w	r7, r7, #8
 80011b8:	46bd      	mov	sp, r7
 80011ba:	bd80      	pop	{r7, pc}
 80011bc:	40021000 	.word	0x40021000

080011c0 <LIS302DL_LowLevel_Init>:
 80011c0:	b580      	push	{r7, lr}
 80011c2:	b088      	sub	sp, #32
 80011c4:	af00      	add	r7, sp, #0
 80011c6:	f44f 5080 	mov.w	r0, #4096	; 0x1000
 80011ca:	f04f 0101 	mov.w	r1, #1
 80011ce:	f000 fbb9 	bl	8001944 <RCC_APB2PeriphClockCmd>
 80011d2:	f04f 0001 	mov.w	r0, #1
 80011d6:	f04f 0101 	mov.w	r1, #1
 80011da:	f000 fb6f 	bl	80018bc <RCC_AHB1PeriphClockCmd>
 80011de:	f04f 0010 	mov.w	r0, #16
 80011e2:	f04f 0101 	mov.w	r1, #1
 80011e6:	f000 fb69 	bl	80018bc <RCC_AHB1PeriphClockCmd>
 80011ea:	f04f 0010 	mov.w	r0, #16
 80011ee:	f04f 0101 	mov.w	r1, #1
 80011f2:	f000 fb63 	bl	80018bc <RCC_AHB1PeriphClockCmd>
 80011f6:	f04f 0010 	mov.w	r0, #16
 80011fa:	f04f 0101 	mov.w	r1, #1
 80011fe:	f000 fb5d 	bl	80018bc <RCC_AHB1PeriphClockCmd>
 8001202:	484f      	ldr	r0, [pc, #316]	; (8001340 <LIS302DL_LowLevel_Init+0x180>)
 8001204:	f04f 0105 	mov.w	r1, #5
 8001208:	f04f 0205 	mov.w	r2, #5
 800120c:	f000 fb00 	bl	8001810 <GPIO_PinAFConfig>
 8001210:	484b      	ldr	r0, [pc, #300]	; (8001340 <LIS302DL_LowLevel_Init+0x180>)
 8001212:	f04f 0106 	mov.w	r1, #6
 8001216:	f04f 0205 	mov.w	r2, #5
 800121a:	f000 faf9 	bl	8001810 <GPIO_PinAFConfig>
 800121e:	4848      	ldr	r0, [pc, #288]	; (8001340 <LIS302DL_LowLevel_Init+0x180>)
 8001220:	f04f 0107 	mov.w	r1, #7
 8001224:	f04f 0205 	mov.w	r2, #5
 8001228:	f000 faf2 	bl	8001810 <GPIO_PinAFConfig>
 800122c:	f04f 0302 	mov.w	r3, #2
 8001230:	773b      	strb	r3, [r7, #28]
 8001232:	f04f 0300 	mov.w	r3, #0
 8001236:	77bb      	strb	r3, [r7, #30]
 8001238:	f04f 0302 	mov.w	r3, #2
 800123c:	77fb      	strb	r3, [r7, #31]
 800123e:	f04f 0302 	mov.w	r3, #2
 8001242:	777b      	strb	r3, [r7, #29]
 8001244:	f04f 0320 	mov.w	r3, #32
 8001248:	61bb      	str	r3, [r7, #24]
 800124a:	f107 0318 	add.w	r3, r7, #24
 800124e:	483c      	ldr	r0, [pc, #240]	; (8001340 <LIS302DL_LowLevel_Init+0x180>)
 8001250:	4619      	mov	r1, r3
 8001252:	f000 fa1d 	bl	8001690 <GPIO_Init>
 8001256:	f04f 0380 	mov.w	r3, #128	; 0x80
 800125a:	61bb      	str	r3, [r7, #24]
 800125c:	f107 0318 	add.w	r3, r7, #24
 8001260:	4837      	ldr	r0, [pc, #220]	; (8001340 <LIS302DL_LowLevel_Init+0x180>)
 8001262:	4619      	mov	r1, r3
 8001264:	f000 fa14 	bl	8001690 <GPIO_Init>
 8001268:	f04f 0340 	mov.w	r3, #64	; 0x40
 800126c:	61bb      	str	r3, [r7, #24]
 800126e:	f107 0318 	add.w	r3, r7, #24
 8001272:	4833      	ldr	r0, [pc, #204]	; (8001340 <LIS302DL_LowLevel_Init+0x180>)
 8001274:	4619      	mov	r1, r3
 8001276:	f000 fa0b 	bl	8001690 <GPIO_Init>
 800127a:	4832      	ldr	r0, [pc, #200]	; (8001344 <LIS302DL_LowLevel_Init+0x184>)
 800127c:	f000 fbc8 	bl	8001a10 <SPI_I2S_DeInit>
 8001280:	f04f 0300 	mov.w	r3, #0
 8001284:	80bb      	strh	r3, [r7, #4]
 8001286:	f04f 0300 	mov.w	r3, #0
 800128a:	813b      	strh	r3, [r7, #8]
 800128c:	f04f 0300 	mov.w	r3, #0
 8001290:	817b      	strh	r3, [r7, #10]
 8001292:	f04f 0300 	mov.w	r3, #0
 8001296:	81bb      	strh	r3, [r7, #12]
 8001298:	f44f 7300 	mov.w	r3, #512	; 0x200
 800129c:	81fb      	strh	r3, [r7, #14]
 800129e:	f04f 0308 	mov.w	r3, #8
 80012a2:	823b      	strh	r3, [r7, #16]
 80012a4:	f04f 0300 	mov.w	r3, #0
 80012a8:	827b      	strh	r3, [r7, #18]
 80012aa:	f04f 0307 	mov.w	r3, #7
 80012ae:	82bb      	strh	r3, [r7, #20]
 80012b0:	f44f 7382 	mov.w	r3, #260	; 0x104
 80012b4:	80fb      	strh	r3, [r7, #6]
 80012b6:	f107 0304 	add.w	r3, r7, #4
 80012ba:	4822      	ldr	r0, [pc, #136]	; (8001344 <LIS302DL_LowLevel_Init+0x184>)
 80012bc:	4619      	mov	r1, r3
 80012be:	f000 fbe7 	bl	8001a90 <SPI_Init>
 80012c2:	4820      	ldr	r0, [pc, #128]	; (8001344 <LIS302DL_LowLevel_Init+0x184>)
 80012c4:	f04f 0101 	mov.w	r1, #1
 80012c8:	f000 fc2e 	bl	8001b28 <SPI_Cmd>
 80012cc:	f04f 0308 	mov.w	r3, #8
 80012d0:	61bb      	str	r3, [r7, #24]
 80012d2:	f04f 0301 	mov.w	r3, #1
 80012d6:	773b      	strb	r3, [r7, #28]
 80012d8:	f04f 0300 	mov.w	r3, #0
 80012dc:	77bb      	strb	r3, [r7, #30]
 80012de:	f04f 0302 	mov.w	r3, #2
 80012e2:	777b      	strb	r3, [r7, #29]
 80012e4:	f107 0318 	add.w	r3, r7, #24
 80012e8:	4817      	ldr	r0, [pc, #92]	; (8001348 <LIS302DL_LowLevel_Init+0x188>)
 80012ea:	4619      	mov	r1, r3
 80012ec:	f000 f9d0 	bl	8001690 <GPIO_Init>
 80012f0:	4815      	ldr	r0, [pc, #84]	; (8001348 <LIS302DL_LowLevel_Init+0x188>)
 80012f2:	f04f 0108 	mov.w	r1, #8
 80012f6:	f000 fa6f 	bl	80017d8 <GPIO_SetBits>
 80012fa:	f04f 0301 	mov.w	r3, #1
 80012fe:	61bb      	str	r3, [r7, #24]
 8001300:	f04f 0300 	mov.w	r3, #0
 8001304:	773b      	strb	r3, [r7, #28]
 8001306:	f04f 0300 	mov.w	r3, #0
 800130a:	77bb      	strb	r3, [r7, #30]
 800130c:	f04f 0302 	mov.w	r3, #2
 8001310:	777b      	strb	r3, [r7, #29]
 8001312:	f04f 0300 	mov.w	r3, #0
 8001316:	77fb      	strb	r3, [r7, #31]
 8001318:	f107 0318 	add.w	r3, r7, #24
 800131c:	480a      	ldr	r0, [pc, #40]	; (8001348 <LIS302DL_LowLevel_Init+0x188>)
 800131e:	4619      	mov	r1, r3
 8001320:	f000 f9b6 	bl	8001690 <GPIO_Init>
 8001324:	f04f 0302 	mov.w	r3, #2
 8001328:	61bb      	str	r3, [r7, #24]
 800132a:	f107 0318 	add.w	r3, r7, #24
 800132e:	4806      	ldr	r0, [pc, #24]	; (8001348 <LIS302DL_LowLevel_Init+0x188>)
 8001330:	4619      	mov	r1, r3
 8001332:	f000 f9ad 	bl	8001690 <GPIO_Init>
 8001336:	f107 0720 	add.w	r7, r7, #32
 800133a:	46bd      	mov	sp, r7
 800133c:	bd80      	pop	{r7, pc}
 800133e:	bf00      	nop
 8001340:	40020000 	.word	0x40020000
 8001344:	40013000 	.word	0x40013000
 8001348:	40021000 	.word	0x40021000

0800134c <LIS302DL_SendByte>:
 800134c:	b580      	push	{r7, lr}
 800134e:	b082      	sub	sp, #8
 8001350:	af00      	add	r7, sp, #0
 8001352:	4603      	mov	r3, r0
 8001354:	71fb      	strb	r3, [r7, #7]
 8001356:	4b27      	ldr	r3, [pc, #156]	; (80013f4 <LIS302DL_SendByte+0xa8>)
 8001358:	f44f 5280 	mov.w	r2, #4096	; 0x1000
 800135c:	601a      	str	r2, [r3, #0]
 800135e:	e011      	b.n	8001384 <LIS302DL_SendByte+0x38>
 8001360:	4b24      	ldr	r3, [pc, #144]	; (80013f4 <LIS302DL_SendByte+0xa8>)
 8001362:	681b      	ldr	r3, [r3, #0]
 8001364:	2b00      	cmp	r3, #0
 8001366:	bf14      	ite	ne
 8001368:	2200      	movne	r2, #0
 800136a:	2201      	moveq	r2, #1
 800136c:	b2d2      	uxtb	r2, r2
 800136e:	f103 31ff 	add.w	r1, r3, #4294967295
 8001372:	4b20      	ldr	r3, [pc, #128]	; (80013f4 <LIS302DL_SendByte+0xa8>)
 8001374:	6019      	str	r1, [r3, #0]
 8001376:	2a00      	cmp	r2, #0
 8001378:	d004      	beq.n	8001384 <LIS302DL_SendByte+0x38>
 800137a:	f7ff f9b3 	bl	80006e4 <LIS302DL_TIMEOUT_UserCallback>
 800137e:	4603      	mov	r3, r0
 8001380:	b2db      	uxtb	r3, r3
 8001382:	e031      	b.n	80013e8 <LIS302DL_SendByte+0x9c>
 8001384:	481c      	ldr	r0, [pc, #112]	; (80013f8 <LIS302DL_SendByte+0xac>)
 8001386:	f04f 0102 	mov.w	r1, #2
 800138a:	f000 fc09 	bl	8001ba0 <SPI_I2S_GetFlagStatus>
 800138e:	4603      	mov	r3, r0
 8001390:	2b00      	cmp	r3, #0
 8001392:	d0e5      	beq.n	8001360 <LIS302DL_SendByte+0x14>
 8001394:	79fb      	ldrb	r3, [r7, #7]
 8001396:	b29b      	uxth	r3, r3
 8001398:	4817      	ldr	r0, [pc, #92]	; (80013f8 <LIS302DL_SendByte+0xac>)
 800139a:	4619      	mov	r1, r3
 800139c:	f000 fbf2 	bl	8001b84 <SPI_I2S_SendData>
 80013a0:	4b14      	ldr	r3, [pc, #80]	; (80013f4 <LIS302DL_SendByte+0xa8>)
 80013a2:	f44f 5280 	mov.w	r2, #4096	; 0x1000
 80013a6:	601a      	str	r2, [r3, #0]
 80013a8:	e011      	b.n	80013ce <LIS302DL_SendByte+0x82>
 80013aa:	4b12      	ldr	r3, [pc, #72]	; (80013f4 <LIS302DL_SendByte+0xa8>)
 80013ac:	681b      	ldr	r3, [r3, #0]
 80013ae:	2b00      	cmp	r3, #0
 80013b0:	bf14      	ite	ne
 80013b2:	2200      	movne	r2, #0
 80013b4:	2201      	moveq	r2, #1
 80013b6:	b2d2      	uxtb	r2, r2
 80013b8:	f103 31ff 	add.w	r1, r3, #4294967295
 80013bc:	4b0d      	ldr	r3, [pc, #52]	; (80013f4 <LIS302DL_SendByte+0xa8>)
 80013be:	6019      	str	r1, [r3, #0]
 80013c0:	2a00      	cmp	r2, #0
 80013c2:	d004      	beq.n	80013ce <LIS302DL_SendByte+0x82>
 80013c4:	f7ff f98e 	bl	80006e4 <LIS302DL_TIMEOUT_UserCallback>
 80013c8:	4603      	mov	r3, r0
 80013ca:	b2db      	uxtb	r3, r3
 80013cc:	e00c      	b.n	80013e8 <LIS302DL_SendByte+0x9c>
 80013ce:	480a      	ldr	r0, [pc, #40]	; (80013f8 <LIS302DL_SendByte+0xac>)
 80013d0:	f04f 0101 	mov.w	r1, #1
 80013d4:	f000 fbe4 	bl	8001ba0 <SPI_I2S_GetFlagStatus>
 80013d8:	4603      	mov	r3, r0
 80013da:	2b00      	cmp	r3, #0
 80013dc:	d0e5      	beq.n	80013aa <LIS302DL_SendByte+0x5e>
 80013de:	4806      	ldr	r0, [pc, #24]	; (80013f8 <LIS302DL_SendByte+0xac>)
 80013e0:	f000 fbc2 	bl	8001b68 <SPI_I2S_ReceiveData>
 80013e4:	4603      	mov	r3, r0
 80013e6:	b2db      	uxtb	r3, r3
 80013e8:	4618      	mov	r0, r3
 80013ea:	f107 0708 	add.w	r7, r7, #8
 80013ee:	46bd      	mov	sp, r7
 80013f0:	bd80      	pop	{r7, pc}
 80013f2:	bf00      	nop
 80013f4:	20000018 	.word	0x20000018
 80013f8:	40013000 	.word	0x40013000

080013fc <NVIC_PriorityGroupConfig>:
 80013fc:	b480      	push	{r7}
 80013fe:	b083      	sub	sp, #12
 8001400:	af00      	add	r7, sp, #0
 8001402:	6078      	str	r0, [r7, #4]
 8001404:	4a05      	ldr	r2, [pc, #20]	; (800141c <NVIC_PriorityGroupConfig+0x20>)
 8001406:	687b      	ldr	r3, [r7, #4]
 8001408:	f043 63be 	orr.w	r3, r3, #99614720	; 0x5f00000
 800140c:	f443 2320 	orr.w	r3, r3, #655360	; 0xa0000
 8001410:	60d3      	str	r3, [r2, #12]
 8001412:	f107 070c 	add.w	r7, r7, #12
 8001416:	46bd      	mov	sp, r7
 8001418:	bc80      	pop	{r7}
 800141a:	4770      	bx	lr
 800141c:	e000ed00 	.word	0xe000ed00

08001420 <NVIC_Init>:
 8001420:	b480      	push	{r7}
 8001422:	b085      	sub	sp, #20
 8001424:	af00      	add	r7, sp, #0
 8001426:	6078      	str	r0, [r7, #4]
 8001428:	f04f 0300 	mov.w	r3, #0
 800142c:	73fb      	strb	r3, [r7, #15]
 800142e:	f04f 0300 	mov.w	r3, #0
 8001432:	73bb      	strb	r3, [r7, #14]
 8001434:	f04f 030f 	mov.w	r3, #15
 8001438:	737b      	strb	r3, [r7, #13]
 800143a:	687b      	ldr	r3, [r7, #4]
 800143c:	78db      	ldrb	r3, [r3, #3]
 800143e:	2b00      	cmp	r3, #0
 8001440:	d03e      	beq.n	80014c0 <NVIC_Init+0xa0>
 8001442:	4b2b      	ldr	r3, [pc, #172]	; (80014f0 <NVIC_Init+0xd0>)
 8001444:	68db      	ldr	r3, [r3, #12]
 8001446:	ea6f 0303 	mvn.w	r3, r3
 800144a:	f403 63e0 	and.w	r3, r3, #1792	; 0x700
 800144e:	ea4f 2313 	mov.w	r3, r3, lsr #8
 8001452:	73fb      	strb	r3, [r7, #15]
 8001454:	7bfb      	ldrb	r3, [r7, #15]
 8001456:	f1c3 0304 	rsb	r3, r3, #4
 800145a:	73bb      	strb	r3, [r7, #14]
 800145c:	7b7a      	ldrb	r2, [r7, #13]
 800145e:	7bfb      	ldrb	r3, [r7, #15]
 8001460:	fa42 f303 	asr.w	r3, r2, r3
 8001464:	737b      	strb	r3, [r7, #13]
 8001466:	687b      	ldr	r3, [r7, #4]
 8001468:	785b      	ldrb	r3, [r3, #1]
 800146a:	461a      	mov	r2, r3
 800146c:	7bbb      	ldrb	r3, [r7, #14]
 800146e:	fa02 f303 	lsl.w	r3, r2, r3
 8001472:	73fb      	strb	r3, [r7, #15]
 8001474:	687b      	ldr	r3, [r7, #4]
 8001476:	789a      	ldrb	r2, [r3, #2]
 8001478:	7b7b      	ldrb	r3, [r7, #13]
 800147a:	ea02 0303 	and.w	r3, r2, r3
 800147e:	b2da      	uxtb	r2, r3
 8001480:	7bfb      	ldrb	r3, [r7, #15]
 8001482:	ea42 0303 	orr.w	r3, r2, r3
 8001486:	73fb      	strb	r3, [r7, #15]
 8001488:	7bfb      	ldrb	r3, [r7, #15]
 800148a:	ea4f 1303 	mov.w	r3, r3, lsl #4
 800148e:	73fb      	strb	r3, [r7, #15]
 8001490:	4a18      	ldr	r2, [pc, #96]	; (80014f4 <NVIC_Init+0xd4>)
 8001492:	687b      	ldr	r3, [r7, #4]
 8001494:	781b      	ldrb	r3, [r3, #0]
 8001496:	18d3      	adds	r3, r2, r3
 8001498:	7bfa      	ldrb	r2, [r7, #15]
 800149a:	f883 2300 	strb.w	r2, [r3, #768]	; 0x300
 800149e:	4b15      	ldr	r3, [pc, #84]	; (80014f4 <NVIC_Init+0xd4>)
 80014a0:	687a      	ldr	r2, [r7, #4]
 80014a2:	7812      	ldrb	r2, [r2, #0]
 80014a4:	ea4f 1252 	mov.w	r2, r2, lsr #5
 80014a8:	b2d2      	uxtb	r2, r2
 80014aa:	6879      	ldr	r1, [r7, #4]
 80014ac:	7809      	ldrb	r1, [r1, #0]
 80014ae:	f001 011f 	and.w	r1, r1, #31
 80014b2:	f04f 0001 	mov.w	r0, #1
 80014b6:	fa00 f101 	lsl.w	r1, r0, r1
 80014ba:	f843 1022 	str.w	r1, [r3, r2, lsl #2]
 80014be:	e011      	b.n	80014e4 <NVIC_Init+0xc4>
 80014c0:	4b0c      	ldr	r3, [pc, #48]	; (80014f4 <NVIC_Init+0xd4>)
 80014c2:	687a      	ldr	r2, [r7, #4]
 80014c4:	7812      	ldrb	r2, [r2, #0]
 80014c6:	ea4f 1252 	mov.w	r2, r2, lsr #5
 80014ca:	b2d2      	uxtb	r2, r2
 80014cc:	6879      	ldr	r1, [r7, #4]
 80014ce:	7809      	ldrb	r1, [r1, #0]
 80014d0:	f001 011f 	and.w	r1, r1, #31
 80014d4:	f04f 0001 	mov.w	r0, #1
 80014d8:	fa00 f101 	lsl.w	r1, r0, r1
 80014dc:	f102 0220 	add.w	r2, r2, #32
 80014e0:	f843 1022 	str.w	r1, [r3, r2, lsl #2]
 80014e4:	f107 0714 	add.w	r7, r7, #20
 80014e8:	46bd      	mov	sp, r7
 80014ea:	bc80      	pop	{r7}
 80014ec:	4770      	bx	lr
 80014ee:	bf00      	nop
 80014f0:	e000ed00 	.word	0xe000ed00
 80014f4:	e000e100 	.word	0xe000e100

080014f8 <NVIC_SetVectorTable>:
 80014f8:	b480      	push	{r7}
 80014fa:	b083      	sub	sp, #12
 80014fc:	af00      	add	r7, sp, #0
 80014fe:	6078      	str	r0, [r7, #4]
 8001500:	6039      	str	r1, [r7, #0]
 8001502:	4a07      	ldr	r2, [pc, #28]	; (8001520 <NVIC_SetVectorTable+0x28>)
 8001504:	683b      	ldr	r3, [r7, #0]
 8001506:	f023 4360 	bic.w	r3, r3, #3758096384	; 0xe0000000
 800150a:	f023 037f 	bic.w	r3, r3, #127	; 0x7f
 800150e:	6879      	ldr	r1, [r7, #4]
 8001510:	430b      	orrs	r3, r1
 8001512:	6093      	str	r3, [r2, #8]
 8001514:	f107 070c 	add.w	r7, r7, #12
 8001518:	46bd      	mov	sp, r7
 800151a:	bc80      	pop	{r7}
 800151c:	4770      	bx	lr
 800151e:	bf00      	nop
 8001520:	e000ed00 	.word	0xe000ed00

08001524 <EXTI_Init>:
 8001524:	b480      	push	{r7}
 8001526:	b085      	sub	sp, #20
 8001528:	af00      	add	r7, sp, #0
 800152a:	6078      	str	r0, [r7, #4]
 800152c:	f04f 0300 	mov.w	r3, #0
 8001530:	60fb      	str	r3, [r7, #12]
 8001532:	4b3a      	ldr	r3, [pc, #232]	; (800161c <EXTI_Init+0xf8>)
 8001534:	60fb      	str	r3, [r7, #12]
 8001536:	687b      	ldr	r3, [r7, #4]
 8001538:	799b      	ldrb	r3, [r3, #6]
 800153a:	2b00      	cmp	r3, #0
 800153c:	d059      	beq.n	80015f2 <EXTI_Init+0xce>
 800153e:	4b37      	ldr	r3, [pc, #220]	; (800161c <EXTI_Init+0xf8>)
 8001540:	4a36      	ldr	r2, [pc, #216]	; (800161c <EXTI_Init+0xf8>)
 8001542:	6811      	ldr	r1, [r2, #0]
 8001544:	687a      	ldr	r2, [r7, #4]
 8001546:	6812      	ldr	r2, [r2, #0]
 8001548:	ea6f 0202 	mvn.w	r2, r2
 800154c:	ea01 0202 	and.w	r2, r1, r2
 8001550:	601a      	str	r2, [r3, #0]
 8001552:	4b32      	ldr	r3, [pc, #200]	; (800161c <EXTI_Init+0xf8>)
 8001554:	4a31      	ldr	r2, [pc, #196]	; (800161c <EXTI_Init+0xf8>)
 8001556:	6851      	ldr	r1, [r2, #4]
 8001558:	687a      	ldr	r2, [r7, #4]
 800155a:	6812      	ldr	r2, [r2, #0]
 800155c:	ea6f 0202 	mvn.w	r2, r2
 8001560:	ea01 0202 	and.w	r2, r1, r2
 8001564:	605a      	str	r2, [r3, #4]
 8001566:	687b      	ldr	r3, [r7, #4]
 8001568:	791b      	ldrb	r3, [r3, #4]
 800156a:	68fa      	ldr	r2, [r7, #12]
 800156c:	18d3      	adds	r3, r2, r3
 800156e:	60fb      	str	r3, [r7, #12]
 8001570:	68fb      	ldr	r3, [r7, #12]
 8001572:	68fa      	ldr	r2, [r7, #12]
 8001574:	6811      	ldr	r1, [r2, #0]
 8001576:	687a      	ldr	r2, [r7, #4]
 8001578:	6812      	ldr	r2, [r2, #0]
 800157a:	ea41 0202 	orr.w	r2, r1, r2
 800157e:	601a      	str	r2, [r3, #0]
 8001580:	4b26      	ldr	r3, [pc, #152]	; (800161c <EXTI_Init+0xf8>)
 8001582:	4a26      	ldr	r2, [pc, #152]	; (800161c <EXTI_Init+0xf8>)
 8001584:	6891      	ldr	r1, [r2, #8]
 8001586:	687a      	ldr	r2, [r7, #4]
 8001588:	6812      	ldr	r2, [r2, #0]
 800158a:	ea6f 0202 	mvn.w	r2, r2
 800158e:	ea01 0202 	and.w	r2, r1, r2
 8001592:	609a      	str	r2, [r3, #8]
 8001594:	4b21      	ldr	r3, [pc, #132]	; (800161c <EXTI_Init+0xf8>)
 8001596:	4a21      	ldr	r2, [pc, #132]	; (800161c <EXTI_Init+0xf8>)
 8001598:	68d1      	ldr	r1, [r2, #12]
 800159a:	687a      	ldr	r2, [r7, #4]
 800159c:	6812      	ldr	r2, [r2, #0]
 800159e:	ea6f 0202 	mvn.w	r2, r2
 80015a2:	ea01 0202 	and.w	r2, r1, r2
 80015a6:	60da      	str	r2, [r3, #12]
 80015a8:	687b      	ldr	r3, [r7, #4]
 80015aa:	795b      	ldrb	r3, [r3, #5]
 80015ac:	2b10      	cmp	r3, #16
 80015ae:	d110      	bne.n	80015d2 <EXTI_Init+0xae>
 80015b0:	4b1a      	ldr	r3, [pc, #104]	; (800161c <EXTI_Init+0xf8>)
 80015b2:	4a1a      	ldr	r2, [pc, #104]	; (800161c <EXTI_Init+0xf8>)
 80015b4:	6891      	ldr	r1, [r2, #8]
 80015b6:	687a      	ldr	r2, [r7, #4]
 80015b8:	6812      	ldr	r2, [r2, #0]
 80015ba:	ea41 0202 	orr.w	r2, r1, r2
 80015be:	609a      	str	r2, [r3, #8]
 80015c0:	4b16      	ldr	r3, [pc, #88]	; (800161c <EXTI_Init+0xf8>)
 80015c2:	4a16      	ldr	r2, [pc, #88]	; (800161c <EXTI_Init+0xf8>)
 80015c4:	68d1      	ldr	r1, [r2, #12]
 80015c6:	687a      	ldr	r2, [r7, #4]
 80015c8:	6812      	ldr	r2, [r2, #0]
 80015ca:	ea41 0202 	orr.w	r2, r1, r2
 80015ce:	60da      	str	r2, [r3, #12]
 80015d0:	e01e      	b.n	8001610 <EXTI_Init+0xec>
 80015d2:	4b12      	ldr	r3, [pc, #72]	; (800161c <EXTI_Init+0xf8>)
 80015d4:	60fb      	str	r3, [r7, #12]
 80015d6:	687b      	ldr	r3, [r7, #4]
 80015d8:	795b      	ldrb	r3, [r3, #5]
 80015da:	68fa      	ldr	r2, [r7, #12]
 80015dc:	18d3      	adds	r3, r2, r3
 80015de:	60fb      	str	r3, [r7, #12]
 80015e0:	68fb      	ldr	r3, [r7, #12]
 80015e2:	68fa      	ldr	r2, [r7, #12]
 80015e4:	6811      	ldr	r1, [r2, #0]
 80015e6:	687a      	ldr	r2, [r7, #4]
 80015e8:	6812      	ldr	r2, [r2, #0]
 80015ea:	ea41 0202 	orr.w	r2, r1, r2
 80015ee:	601a      	str	r2, [r3, #0]
 80015f0:	e00e      	b.n	8001610 <EXTI_Init+0xec>
 80015f2:	687b      	ldr	r3, [r7, #4]
 80015f4:	791b      	ldrb	r3, [r3, #4]
 80015f6:	68fa      	ldr	r2, [r7, #12]
 80015f8:	18d3      	adds	r3, r2, r3
 80015fa:	60fb      	str	r3, [r7, #12]
 80015fc:	68fb      	ldr	r3, [r7, #12]
 80015fe:	68fa      	ldr	r2, [r7, #12]
 8001600:	6811      	ldr	r1, [r2, #0]
 8001602:	687a      	ldr	r2, [r7, #4]
 8001604:	6812      	ldr	r2, [r2, #0]
 8001606:	ea6f 0202 	mvn.w	r2, r2
 800160a:	ea01 0202 	and.w	r2, r1, r2
 800160e:	601a      	str	r2, [r3, #0]
 8001610:	f107 0714 	add.w	r7, r7, #20
 8001614:	46bd      	mov	sp, r7
 8001616:	bc80      	pop	{r7}
 8001618:	4770      	bx	lr
 800161a:	bf00      	nop
 800161c:	40013c00 	.word	0x40013c00

08001620 <EXTI_GetITStatus>:
 8001620:	b480      	push	{r7}
 8001622:	b085      	sub	sp, #20
 8001624:	af00      	add	r7, sp, #0
 8001626:	6078      	str	r0, [r7, #4]
 8001628:	f04f 0300 	mov.w	r3, #0
 800162c:	73fb      	strb	r3, [r7, #15]
 800162e:	f04f 0300 	mov.w	r3, #0
 8001632:	60bb      	str	r3, [r7, #8]
 8001634:	4b0e      	ldr	r3, [pc, #56]	; (8001670 <EXTI_GetITStatus+0x50>)
 8001636:	681a      	ldr	r2, [r3, #0]
 8001638:	687b      	ldr	r3, [r7, #4]
 800163a:	ea02 0303 	and.w	r3, r2, r3
 800163e:	60bb      	str	r3, [r7, #8]
 8001640:	4b0b      	ldr	r3, [pc, #44]	; (8001670 <EXTI_GetITStatus+0x50>)
 8001642:	695a      	ldr	r2, [r3, #20]
 8001644:	687b      	ldr	r3, [r7, #4]
 8001646:	ea02 0303 	and.w	r3, r2, r3
 800164a:	2b00      	cmp	r3, #0
 800164c:	d006      	beq.n	800165c <EXTI_GetITStatus+0x3c>
 800164e:	68bb      	ldr	r3, [r7, #8]
 8001650:	2b00      	cmp	r3, #0
 8001652:	d003      	beq.n	800165c <EXTI_GetITStatus+0x3c>
 8001654:	f04f 0301 	mov.w	r3, #1
 8001658:	73fb      	strb	r3, [r7, #15]
 800165a:	e002      	b.n	8001662 <EXTI_GetITStatus+0x42>
 800165c:	f04f 0300 	mov.w	r3, #0
 8001660:	73fb      	strb	r3, [r7, #15]
 8001662:	7bfb      	ldrb	r3, [r7, #15]
 8001664:	4618      	mov	r0, r3
 8001666:	f107 0714 	add.w	r7, r7, #20
 800166a:	46bd      	mov	sp, r7
 800166c:	bc80      	pop	{r7}
 800166e:	4770      	bx	lr
 8001670:	40013c00 	.word	0x40013c00

08001674 <EXTI_ClearITPendingBit>:
 8001674:	b480      	push	{r7}
 8001676:	b083      	sub	sp, #12
 8001678:	af00      	add	r7, sp, #0
 800167a:	6078      	str	r0, [r7, #4]
 800167c:	4b03      	ldr	r3, [pc, #12]	; (800168c <EXTI_ClearITPendingBit+0x18>)
 800167e:	687a      	ldr	r2, [r7, #4]
 8001680:	615a      	str	r2, [r3, #20]
 8001682:	f107 070c 	add.w	r7, r7, #12
 8001686:	46bd      	mov	sp, r7
 8001688:	bc80      	pop	{r7}
 800168a:	4770      	bx	lr
 800168c:	40013c00 	.word	0x40013c00

08001690 <GPIO_Init>:
 8001690:	b480      	push	{r7}
 8001692:	b087      	sub	sp, #28
 8001694:	af00      	add	r7, sp, #0
 8001696:	6078      	str	r0, [r7, #4]
 8001698:	6039      	str	r1, [r7, #0]
 800169a:	f04f 0300 	mov.w	r3, #0
 800169e:	617b      	str	r3, [r7, #20]
 80016a0:	f04f 0300 	mov.w	r3, #0
 80016a4:	613b      	str	r3, [r7, #16]
 80016a6:	f04f 0300 	mov.w	r3, #0
 80016aa:	60fb      	str	r3, [r7, #12]
 80016ac:	f04f 0300 	mov.w	r3, #0
 80016b0:	617b      	str	r3, [r7, #20]
 80016b2:	e087      	b.n	80017c4 <GPIO_Init+0x134>
 80016b4:	697b      	ldr	r3, [r7, #20]
 80016b6:	f04f 0201 	mov.w	r2, #1
 80016ba:	fa02 f303 	lsl.w	r3, r2, r3
 80016be:	613b      	str	r3, [r7, #16]
 80016c0:	683b      	ldr	r3, [r7, #0]
 80016c2:	681a      	ldr	r2, [r3, #0]
 80016c4:	693b      	ldr	r3, [r7, #16]
 80016c6:	ea02 0303 	and.w	r3, r2, r3
 80016ca:	60fb      	str	r3, [r7, #12]
 80016cc:	68fa      	ldr	r2, [r7, #12]
 80016ce:	693b      	ldr	r3, [r7, #16]
 80016d0:	429a      	cmp	r2, r3
 80016d2:	d173      	bne.n	80017bc <GPIO_Init+0x12c>
 80016d4:	687b      	ldr	r3, [r7, #4]
 80016d6:	681a      	ldr	r2, [r3, #0]
 80016d8:	697b      	ldr	r3, [r7, #20]
 80016da:	ea4f 0343 	mov.w	r3, r3, lsl #1
 80016de:	f04f 0103 	mov.w	r1, #3
 80016e2:	fa01 f303 	lsl.w	r3, r1, r3
 80016e6:	ea6f 0303 	mvn.w	r3, r3
 80016ea:	401a      	ands	r2, r3
 80016ec:	687b      	ldr	r3, [r7, #4]
 80016ee:	601a      	str	r2, [r3, #0]
 80016f0:	687b      	ldr	r3, [r7, #4]
 80016f2:	681a      	ldr	r2, [r3, #0]
 80016f4:	683b      	ldr	r3, [r7, #0]
 80016f6:	791b      	ldrb	r3, [r3, #4]
 80016f8:	4619      	mov	r1, r3
 80016fa:	697b      	ldr	r3, [r7, #20]
 80016fc:	ea4f 0343 	mov.w	r3, r3, lsl #1
 8001700:	fa01 f303 	lsl.w	r3, r1, r3
 8001704:	431a      	orrs	r2, r3
 8001706:	687b      	ldr	r3, [r7, #4]
 8001708:	601a      	str	r2, [r3, #0]
 800170a:	683b      	ldr	r3, [r7, #0]
 800170c:	791b      	ldrb	r3, [r3, #4]
 800170e:	2b01      	cmp	r3, #1
 8001710:	d003      	beq.n	800171a <GPIO_Init+0x8a>
 8001712:	683b      	ldr	r3, [r7, #0]
 8001714:	791b      	ldrb	r3, [r3, #4]
 8001716:	2b02      	cmp	r3, #2
 8001718:	d134      	bne.n	8001784 <GPIO_Init+0xf4>
 800171a:	687b      	ldr	r3, [r7, #4]
 800171c:	689a      	ldr	r2, [r3, #8]
 800171e:	697b      	ldr	r3, [r7, #20]
 8001720:	ea4f 0343 	mov.w	r3, r3, lsl #1
 8001724:	f04f 0103 	mov.w	r1, #3
 8001728:	fa01 f303 	lsl.w	r3, r1, r3
 800172c:	ea6f 0303 	mvn.w	r3, r3
 8001730:	401a      	ands	r2, r3
 8001732:	687b      	ldr	r3, [r7, #4]
 8001734:	609a      	str	r2, [r3, #8]
 8001736:	687b      	ldr	r3, [r7, #4]
 8001738:	689a      	ldr	r2, [r3, #8]
 800173a:	683b      	ldr	r3, [r7, #0]
 800173c:	795b      	ldrb	r3, [r3, #5]
 800173e:	4619      	mov	r1, r3
 8001740:	697b      	ldr	r3, [r7, #20]
 8001742:	ea4f 0343 	mov.w	r3, r3, lsl #1
 8001746:	fa01 f303 	lsl.w	r3, r1, r3
 800174a:	431a      	orrs	r2, r3
 800174c:	687b      	ldr	r3, [r7, #4]
 800174e:	609a      	str	r2, [r3, #8]
 8001750:	687b      	ldr	r3, [r7, #4]
 8001752:	685a      	ldr	r2, [r3, #4]
 8001754:	697b      	ldr	r3, [r7, #20]
 8001756:	b29b      	uxth	r3, r3
 8001758:	f04f 0101 	mov.w	r1, #1
 800175c:	fa01 f303 	lsl.w	r3, r1, r3
 8001760:	ea6f 0303 	mvn.w	r3, r3
 8001764:	401a      	ands	r2, r3
 8001766:	687b      	ldr	r3, [r7, #4]
 8001768:	605a      	str	r2, [r3, #4]
 800176a:	687b      	ldr	r3, [r7, #4]
 800176c:	685a      	ldr	r2, [r3, #4]
 800176e:	683b      	ldr	r3, [r7, #0]
 8001770:	799b      	ldrb	r3, [r3, #6]
 8001772:	4619      	mov	r1, r3
 8001774:	697b      	ldr	r3, [r7, #20]
 8001776:	b29b      	uxth	r3, r3
 8001778:	fa01 f303 	lsl.w	r3, r1, r3
 800177c:	b29b      	uxth	r3, r3
 800177e:	431a      	orrs	r2, r3
 8001780:	687b      	ldr	r3, [r7, #4]
 8001782:	605a      	str	r2, [r3, #4]
 8001784:	687b      	ldr	r3, [r7, #4]
 8001786:	68da      	ldr	r2, [r3, #12]
 8001788:	697b      	ldr	r3, [r7, #20]
 800178a:	b29b      	uxth	r3, r3
 800178c:	ea4f 0343 	mov.w	r3, r3, lsl #1
 8001790:	f04f 0103 	mov.w	r1, #3
 8001794:	fa01 f303 	lsl.w	r3, r1, r3
 8001798:	ea6f 0303 	mvn.w	r3, r3
 800179c:	401a      	ands	r2, r3
 800179e:	687b      	ldr	r3, [r7, #4]
 80017a0:	60da      	str	r2, [r3, #12]
 80017a2:	687b      	ldr	r3, [r7, #4]
 80017a4:	68da      	ldr	r2, [r3, #12]
 80017a6:	683b      	ldr	r3, [r7, #0]
 80017a8:	79db      	ldrb	r3, [r3, #7]
 80017aa:	4619      	mov	r1, r3
 80017ac:	697b      	ldr	r3, [r7, #20]
 80017ae:	ea4f 0343 	mov.w	r3, r3, lsl #1
 80017b2:	fa01 f303 	lsl.w	r3, r1, r3
 80017b6:	431a      	orrs	r2, r3
 80017b8:	687b      	ldr	r3, [r7, #4]
 80017ba:	60da      	str	r2, [r3, #12]
 80017bc:	697b      	ldr	r3, [r7, #20]
 80017be:	f103 0301 	add.w	r3, r3, #1
 80017c2:	617b      	str	r3, [r7, #20]
 80017c4:	697b      	ldr	r3, [r7, #20]
 80017c6:	2b0f      	cmp	r3, #15
 80017c8:	f67f af74 	bls.w	80016b4 <GPIO_Init+0x24>
 80017cc:	f107 071c 	add.w	r7, r7, #28
 80017d0:	46bd      	mov	sp, r7
 80017d2:	bc80      	pop	{r7}
 80017d4:	4770      	bx	lr
 80017d6:	bf00      	nop

080017d8 <GPIO_SetBits>:
 80017d8:	b480      	push	{r7}
 80017da:	b083      	sub	sp, #12
 80017dc:	af00      	add	r7, sp, #0
 80017de:	6078      	str	r0, [r7, #4]
 80017e0:	460b      	mov	r3, r1
 80017e2:	807b      	strh	r3, [r7, #2]
 80017e4:	687b      	ldr	r3, [r7, #4]
 80017e6:	887a      	ldrh	r2, [r7, #2]
 80017e8:	831a      	strh	r2, [r3, #24]
 80017ea:	f107 070c 	add.w	r7, r7, #12
 80017ee:	46bd      	mov	sp, r7
 80017f0:	bc80      	pop	{r7}
 80017f2:	4770      	bx	lr

080017f4 <GPIO_ResetBits>:
 80017f4:	b480      	push	{r7}
 80017f6:	b083      	sub	sp, #12
 80017f8:	af00      	add	r7, sp, #0
 80017fa:	6078      	str	r0, [r7, #4]
 80017fc:	460b      	mov	r3, r1
 80017fe:	807b      	strh	r3, [r7, #2]
 8001800:	687b      	ldr	r3, [r7, #4]
 8001802:	887a      	ldrh	r2, [r7, #2]
 8001804:	835a      	strh	r2, [r3, #26]
 8001806:	f107 070c 	add.w	r7, r7, #12
 800180a:	46bd      	mov	sp, r7
 800180c:	bc80      	pop	{r7}
 800180e:	4770      	bx	lr

08001810 <GPIO_PinAFConfig>:
 8001810:	b480      	push	{r7}
 8001812:	b085      	sub	sp, #20
 8001814:	af00      	add	r7, sp, #0
 8001816:	6078      	str	r0, [r7, #4]
 8001818:	4613      	mov	r3, r2
 800181a:	460a      	mov	r2, r1
 800181c:	807a      	strh	r2, [r7, #2]
 800181e:	707b      	strb	r3, [r7, #1]
 8001820:	f04f 0300 	mov.w	r3, #0
 8001824:	60fb      	str	r3, [r7, #12]
 8001826:	f04f 0300 	mov.w	r3, #0
 800182a:	60bb      	str	r3, [r7, #8]
 800182c:	787a      	ldrb	r2, [r7, #1]
 800182e:	887b      	ldrh	r3, [r7, #2]
 8001830:	f003 0307 	and.w	r3, r3, #7
 8001834:	ea4f 0383 	mov.w	r3, r3, lsl #2
 8001838:	fa02 f303 	lsl.w	r3, r2, r3
 800183c:	60fb      	str	r3, [r7, #12]
 800183e:	887b      	ldrh	r3, [r7, #2]
 8001840:	ea4f 03d3 	mov.w	r3, r3, lsr #3
 8001844:	b29b      	uxth	r3, r3
 8001846:	461a      	mov	r2, r3
 8001848:	887b      	ldrh	r3, [r7, #2]
 800184a:	ea4f 03d3 	mov.w	r3, r3, lsr #3
 800184e:	b29b      	uxth	r3, r3
 8001850:	4619      	mov	r1, r3
 8001852:	687b      	ldr	r3, [r7, #4]
 8001854:	f101 0108 	add.w	r1, r1, #8
 8001858:	f853 1021 	ldr.w	r1, [r3, r1, lsl #2]
 800185c:	887b      	ldrh	r3, [r7, #2]
 800185e:	f003 0307 	and.w	r3, r3, #7
 8001862:	ea4f 0383 	mov.w	r3, r3, lsl #2
 8001866:	f04f 000f 	mov.w	r0, #15
 800186a:	fa00 f303 	lsl.w	r3, r0, r3
 800186e:	ea6f 0303 	mvn.w	r3, r3
 8001872:	4019      	ands	r1, r3
 8001874:	687b      	ldr	r3, [r7, #4]
 8001876:	f102 0208 	add.w	r2, r2, #8
 800187a:	f843 1022 	str.w	r1, [r3, r2, lsl #2]
 800187e:	887b      	ldrh	r3, [r7, #2]
 8001880:	ea4f 03d3 	mov.w	r3, r3, lsr #3
 8001884:	b29b      	uxth	r3, r3
 8001886:	461a      	mov	r2, r3
 8001888:	687b      	ldr	r3, [r7, #4]
 800188a:	f102 0208 	add.w	r2, r2, #8
 800188e:	f853 2022 	ldr.w	r2, [r3, r2, lsl #2]
 8001892:	68fb      	ldr	r3, [r7, #12]
 8001894:	ea42 0303 	orr.w	r3, r2, r3
 8001898:	60bb      	str	r3, [r7, #8]
 800189a:	887b      	ldrh	r3, [r7, #2]
 800189c:	ea4f 03d3 	mov.w	r3, r3, lsr #3
 80018a0:	b29b      	uxth	r3, r3
 80018a2:	461a      	mov	r2, r3
 80018a4:	687b      	ldr	r3, [r7, #4]
 80018a6:	f102 0208 	add.w	r2, r2, #8
 80018aa:	68b9      	ldr	r1, [r7, #8]
 80018ac:	f843 1022 	str.w	r1, [r3, r2, lsl #2]
 80018b0:	f107 0714 	add.w	r7, r7, #20
 80018b4:	46bd      	mov	sp, r7
 80018b6:	bc80      	pop	{r7}
 80018b8:	4770      	bx	lr
 80018ba:	bf00      	nop

080018bc <RCC_AHB1PeriphClockCmd>:
 80018bc:	b480      	push	{r7}
 80018be:	b083      	sub	sp, #12
 80018c0:	af00      	add	r7, sp, #0
 80018c2:	6078      	str	r0, [r7, #4]
 80018c4:	460b      	mov	r3, r1
 80018c6:	70fb      	strb	r3, [r7, #3]
 80018c8:	78fb      	ldrb	r3, [r7, #3]
 80018ca:	2b00      	cmp	r3, #0
 80018cc:	d007      	beq.n	80018de <RCC_AHB1PeriphClockCmd+0x22>
 80018ce:	4b0b      	ldr	r3, [pc, #44]	; (80018fc <RCC_AHB1PeriphClockCmd+0x40>)
 80018d0:	4a0a      	ldr	r2, [pc, #40]	; (80018fc <RCC_AHB1PeriphClockCmd+0x40>)
 80018d2:	6b11      	ldr	r1, [r2, #48]	; 0x30
 80018d4:	687a      	ldr	r2, [r7, #4]
 80018d6:	ea41 0202 	orr.w	r2, r1, r2
 80018da:	631a      	str	r2, [r3, #48]	; 0x30
 80018dc:	e008      	b.n	80018f0 <RCC_AHB1PeriphClockCmd+0x34>
 80018de:	4b07      	ldr	r3, [pc, #28]	; (80018fc <RCC_AHB1PeriphClockCmd+0x40>)
 80018e0:	4a06      	ldr	r2, [pc, #24]	; (80018fc <RCC_AHB1PeriphClockCmd+0x40>)
 80018e2:	6b11      	ldr	r1, [r2, #48]	; 0x30
 80018e4:	687a      	ldr	r2, [r7, #4]
 80018e6:	ea6f 0202 	mvn.w	r2, r2
 80018ea:	ea01 0202 	and.w	r2, r1, r2
 80018ee:	631a      	str	r2, [r3, #48]	; 0x30
 80018f0:	f107 070c 	add.w	r7, r7, #12
 80018f4:	46bd      	mov	sp, r7
 80018f6:	bc80      	pop	{r7}
 80018f8:	4770      	bx	lr
 80018fa:	bf00      	nop
 80018fc:	40023800 	.word	0x40023800

08001900 <RCC_APB1PeriphClockCmd>:
 8001900:	b480      	push	{r7}
 8001902:	b083      	sub	sp, #12
 8001904:	af00      	add	r7, sp, #0
 8001906:	6078      	str	r0, [r7, #4]
 8001908:	460b      	mov	r3, r1
 800190a:	70fb      	strb	r3, [r7, #3]
 800190c:	78fb      	ldrb	r3, [r7, #3]
 800190e:	2b00      	cmp	r3, #0
 8001910:	d007      	beq.n	8001922 <RCC_APB1PeriphClockCmd+0x22>
 8001912:	4b0b      	ldr	r3, [pc, #44]	; (8001940 <RCC_APB1PeriphClockCmd+0x40>)
 8001914:	4a0a      	ldr	r2, [pc, #40]	; (8001940 <RCC_APB1PeriphClockCmd+0x40>)
 8001916:	6c11      	ldr	r1, [r2, #64]	; 0x40
 8001918:	687a      	ldr	r2, [r7, #4]
 800191a:	ea41 0202 	orr.w	r2, r1, r2
 800191e:	641a      	str	r2, [r3, #64]	; 0x40
 8001920:	e008      	b.n	8001934 <RCC_APB1PeriphClockCmd+0x34>
 8001922:	4b07      	ldr	r3, [pc, #28]	; (8001940 <RCC_APB1PeriphClockCmd+0x40>)
 8001924:	4a06      	ldr	r2, [pc, #24]	; (8001940 <RCC_APB1PeriphClockCmd+0x40>)
 8001926:	6c11      	ldr	r1, [r2, #64]	; 0x40
 8001928:	687a      	ldr	r2, [r7, #4]
 800192a:	ea6f 0202 	mvn.w	r2, r2
 800192e:	ea01 0202 	and.w	r2, r1, r2
 8001932:	641a      	str	r2, [r3, #64]	; 0x40
 8001934:	f107 070c 	add.w	r7, r7, #12
 8001938:	46bd      	mov	sp, r7
 800193a:	bc80      	pop	{r7}
 800193c:	4770      	bx	lr
 800193e:	bf00      	nop
 8001940:	40023800 	.word	0x40023800

08001944 <RCC_APB2PeriphClockCmd>:
 8001944:	b480      	push	{r7}
 8001946:	b083      	sub	sp, #12
 8001948:	af00      	add	r7, sp, #0
 800194a:	6078      	str	r0, [r7, #4]
 800194c:	460b      	mov	r3, r1
 800194e:	70fb      	strb	r3, [r7, #3]
 8001950:	78fb      	ldrb	r3, [r7, #3]
 8001952:	2b00      	cmp	r3, #0
 8001954:	d007      	beq.n	8001966 <RCC_APB2PeriphClockCmd+0x22>
 8001956:	4b0b      	ldr	r3, [pc, #44]	; (8001984 <RCC_APB2PeriphClockCmd+0x40>)
 8001958:	4a0a      	ldr	r2, [pc, #40]	; (8001984 <RCC_APB2PeriphClockCmd+0x40>)
 800195a:	6c51      	ldr	r1, [r2, #68]	; 0x44
 800195c:	687a      	ldr	r2, [r7, #4]
 800195e:	ea41 0202 	orr.w	r2, r1, r2
 8001962:	645a      	str	r2, [r3, #68]	; 0x44
 8001964:	e008      	b.n	8001978 <RCC_APB2PeriphClockCmd+0x34>
 8001966:	4b07      	ldr	r3, [pc, #28]	; (8001984 <RCC_APB2PeriphClockCmd+0x40>)
 8001968:	4a06      	ldr	r2, [pc, #24]	; (8001984 <RCC_APB2PeriphClockCmd+0x40>)
 800196a:	6c51      	ldr	r1, [r2, #68]	; 0x44
 800196c:	687a      	ldr	r2, [r7, #4]
 800196e:	ea6f 0202 	mvn.w	r2, r2
 8001972:	ea01 0202 	and.w	r2, r1, r2
 8001976:	645a      	str	r2, [r3, #68]	; 0x44
 8001978:	f107 070c 	add.w	r7, r7, #12
 800197c:	46bd      	mov	sp, r7
 800197e:	bc80      	pop	{r7}
 8001980:	4770      	bx	lr
 8001982:	bf00      	nop
 8001984:	40023800 	.word	0x40023800

08001988 <RCC_APB1PeriphResetCmd>:
 8001988:	b480      	push	{r7}
 800198a:	b083      	sub	sp, #12
 800198c:	af00      	add	r7, sp, #0
 800198e:	6078      	str	r0, [r7, #4]
 8001990:	460b      	mov	r3, r1
 8001992:	70fb      	strb	r3, [r7, #3]
 8001994:	78fb      	ldrb	r3, [r7, #3]
 8001996:	2b00      	cmp	r3, #0
 8001998:	d007      	beq.n	80019aa <RCC_APB1PeriphResetCmd+0x22>
 800199a:	4b0b      	ldr	r3, [pc, #44]	; (80019c8 <RCC_APB1PeriphResetCmd+0x40>)
 800199c:	4a0a      	ldr	r2, [pc, #40]	; (80019c8 <RCC_APB1PeriphResetCmd+0x40>)
 800199e:	6a11      	ldr	r1, [r2, #32]
 80019a0:	687a      	ldr	r2, [r7, #4]
 80019a2:	ea41 0202 	orr.w	r2, r1, r2
 80019a6:	621a      	str	r2, [r3, #32]
 80019a8:	e008      	b.n	80019bc <RCC_APB1PeriphResetCmd+0x34>
 80019aa:	4b07      	ldr	r3, [pc, #28]	; (80019c8 <RCC_APB1PeriphResetCmd+0x40>)
 80019ac:	4a06      	ldr	r2, [pc, #24]	; (80019c8 <RCC_APB1PeriphResetCmd+0x40>)
 80019ae:	6a11      	ldr	r1, [r2, #32]
 80019b0:	687a      	ldr	r2, [r7, #4]
 80019b2:	ea6f 0202 	mvn.w	r2, r2
 80019b6:	ea01 0202 	and.w	r2, r1, r2
 80019ba:	621a      	str	r2, [r3, #32]
 80019bc:	f107 070c 	add.w	r7, r7, #12
 80019c0:	46bd      	mov	sp, r7
 80019c2:	bc80      	pop	{r7}
 80019c4:	4770      	bx	lr
 80019c6:	bf00      	nop
 80019c8:	40023800 	.word	0x40023800

080019cc <RCC_APB2PeriphResetCmd>:
 80019cc:	b480      	push	{r7}
 80019ce:	b083      	sub	sp, #12
 80019d0:	af00      	add	r7, sp, #0
 80019d2:	6078      	str	r0, [r7, #4]
 80019d4:	460b      	mov	r3, r1
 80019d6:	70fb      	strb	r3, [r7, #3]
 80019d8:	78fb      	ldrb	r3, [r7, #3]
 80019da:	2b00      	cmp	r3, #0
 80019dc:	d007      	beq.n	80019ee <RCC_APB2PeriphResetCmd+0x22>
 80019de:	4b0b      	ldr	r3, [pc, #44]	; (8001a0c <RCC_APB2PeriphResetCmd+0x40>)
 80019e0:	4a0a      	ldr	r2, [pc, #40]	; (8001a0c <RCC_APB2PeriphResetCmd+0x40>)
 80019e2:	6a51      	ldr	r1, [r2, #36]	; 0x24
 80019e4:	687a      	ldr	r2, [r7, #4]
 80019e6:	ea41 0202 	orr.w	r2, r1, r2
 80019ea:	625a      	str	r2, [r3, #36]	; 0x24
 80019ec:	e008      	b.n	8001a00 <RCC_APB2PeriphResetCmd+0x34>
 80019ee:	4b07      	ldr	r3, [pc, #28]	; (8001a0c <RCC_APB2PeriphResetCmd+0x40>)
 80019f0:	4a06      	ldr	r2, [pc, #24]	; (8001a0c <RCC_APB2PeriphResetCmd+0x40>)
 80019f2:	6a51      	ldr	r1, [r2, #36]	; 0x24
 80019f4:	687a      	ldr	r2, [r7, #4]
 80019f6:	ea6f 0202 	mvn.w	r2, r2
 80019fa:	ea01 0202 	and.w	r2, r1, r2
 80019fe:	625a      	str	r2, [r3, #36]	; 0x24
 8001a00:	f107 070c 	add.w	r7, r7, #12
 8001a04:	46bd      	mov	sp, r7
 8001a06:	bc80      	pop	{r7}
 8001a08:	4770      	bx	lr
 8001a0a:	bf00      	nop
 8001a0c:	40023800 	.word	0x40023800

08001a10 <SPI_I2S_DeInit>:
 8001a10:	b580      	push	{r7, lr}
 8001a12:	b082      	sub	sp, #8
 8001a14:	af00      	add	r7, sp, #0
 8001a16:	6078      	str	r0, [r7, #4]
 8001a18:	687a      	ldr	r2, [r7, #4]
 8001a1a:	4b1a      	ldr	r3, [pc, #104]	; (8001a84 <SPI_I2S_DeInit+0x74>)
 8001a1c:	429a      	cmp	r2, r3
 8001a1e:	d10c      	bne.n	8001a3a <SPI_I2S_DeInit+0x2a>
 8001a20:	f44f 5080 	mov.w	r0, #4096	; 0x1000
 8001a24:	f04f 0101 	mov.w	r1, #1
 8001a28:	f7ff ffd0 	bl	80019cc <RCC_APB2PeriphResetCmd>
 8001a2c:	f44f 5080 	mov.w	r0, #4096	; 0x1000
 8001a30:	f04f 0100 	mov.w	r1, #0
 8001a34:	f7ff ffca 	bl	80019cc <RCC_APB2PeriphResetCmd>
 8001a38:	e020      	b.n	8001a7c <SPI_I2S_DeInit+0x6c>
 8001a3a:	687a      	ldr	r2, [r7, #4]
 8001a3c:	4b12      	ldr	r3, [pc, #72]	; (8001a88 <SPI_I2S_DeInit+0x78>)
 8001a3e:	429a      	cmp	r2, r3
 8001a40:	d10c      	bne.n	8001a5c <SPI_I2S_DeInit+0x4c>
 8001a42:	f44f 4080 	mov.w	r0, #16384	; 0x4000
 8001a46:	f04f 0101 	mov.w	r1, #1
 8001a4a:	f7ff ff9d 	bl	8001988 <RCC_APB1PeriphResetCmd>
 8001a4e:	f44f 4080 	mov.w	r0, #16384	; 0x4000
 8001a52:	f04f 0100 	mov.w	r1, #0
 8001a56:	f7ff ff97 	bl	8001988 <RCC_APB1PeriphResetCmd>
 8001a5a:	e00f      	b.n	8001a7c <SPI_I2S_DeInit+0x6c>
 8001a5c:	687a      	ldr	r2, [r7, #4]
 8001a5e:	4b0b      	ldr	r3, [pc, #44]	; (8001a8c <SPI_I2S_DeInit+0x7c>)
 8001a60:	429a      	cmp	r2, r3
 8001a62:	d10b      	bne.n	8001a7c <SPI_I2S_DeInit+0x6c>
 8001a64:	f44f 4000 	mov.w	r0, #32768	; 0x8000
 8001a68:	f04f 0101 	mov.w	r1, #1
 8001a6c:	f7ff ff8c 	bl	8001988 <RCC_APB1PeriphResetCmd>
 8001a70:	f44f 4000 	mov.w	r0, #32768	; 0x8000
 8001a74:	f04f 0100 	mov.w	r1, #0
 8001a78:	f7ff ff86 	bl	8001988 <RCC_APB1PeriphResetCmd>
 8001a7c:	f107 0708 	add.w	r7, r7, #8
 8001a80:	46bd      	mov	sp, r7
 8001a82:	bd80      	pop	{r7, pc}
 8001a84:	40013000 	.word	0x40013000
 8001a88:	40003800 	.word	0x40003800
 8001a8c:	40003c00 	.word	0x40003c00

08001a90 <SPI_Init>:
 8001a90:	b480      	push	{r7}
 8001a92:	b085      	sub	sp, #20
 8001a94:	af00      	add	r7, sp, #0
 8001a96:	6078      	str	r0, [r7, #4]
 8001a98:	6039      	str	r1, [r7, #0]
 8001a9a:	f04f 0300 	mov.w	r3, #0
 8001a9e:	81fb      	strh	r3, [r7, #14]
 8001aa0:	687b      	ldr	r3, [r7, #4]
 8001aa2:	881b      	ldrh	r3, [r3, #0]
 8001aa4:	81fb      	strh	r3, [r7, #14]
 8001aa6:	89fb      	ldrh	r3, [r7, #14]
 8001aa8:	f403 5341 	and.w	r3, r3, #12352	; 0x3040
 8001aac:	81fb      	strh	r3, [r7, #14]
 8001aae:	683b      	ldr	r3, [r7, #0]
 8001ab0:	881a      	ldrh	r2, [r3, #0]
 8001ab2:	683b      	ldr	r3, [r7, #0]
 8001ab4:	885b      	ldrh	r3, [r3, #2]
 8001ab6:	ea42 0303 	orr.w	r3, r2, r3
 8001aba:	b29a      	uxth	r2, r3
 8001abc:	683b      	ldr	r3, [r7, #0]
 8001abe:	889b      	ldrh	r3, [r3, #4]
 8001ac0:	ea42 0303 	orr.w	r3, r2, r3
 8001ac4:	b29a      	uxth	r2, r3
 8001ac6:	683b      	ldr	r3, [r7, #0]
 8001ac8:	88db      	ldrh	r3, [r3, #6]
 8001aca:	ea42 0303 	orr.w	r3, r2, r3
 8001ace:	b29a      	uxth	r2, r3
 8001ad0:	683b      	ldr	r3, [r7, #0]
 8001ad2:	891b      	ldrh	r3, [r3, #8]
 8001ad4:	ea42 0303 	orr.w	r3, r2, r3
 8001ad8:	b29a      	uxth	r2, r3
 8001ada:	683b      	ldr	r3, [r7, #0]
 8001adc:	895b      	ldrh	r3, [r3, #10]
 8001ade:	ea42 0303 	orr.w	r3, r2, r3
 8001ae2:	b29a      	uxth	r2, r3
 8001ae4:	683b      	ldr	r3, [r7, #0]
 8001ae6:	899b      	ldrh	r3, [r3, #12]
 8001ae8:	ea42 0303 	orr.w	r3, r2, r3
 8001aec:	b29a      	uxth	r2, r3
 8001aee:	683b      	ldr	r3, [r7, #0]
 8001af0:	89db      	ldrh	r3, [r3, #14]
 8001af2:	ea42 0303 	orr.w	r3, r2, r3
 8001af6:	b29a      	uxth	r2, r3
 8001af8:	89fb      	ldrh	r3, [r7, #14]
 8001afa:	ea42 0303 	orr.w	r3, r2, r3
 8001afe:	81fb      	strh	r3, [r7, #14]
 8001b00:	687b      	ldr	r3, [r7, #4]
 8001b02:	89fa      	ldrh	r2, [r7, #14]
 8001b04:	801a      	strh	r2, [r3, #0]
 8001b06:	687b      	ldr	r3, [r7, #4]
 8001b08:	8b9b      	ldrh	r3, [r3, #28]
 8001b0a:	b29b      	uxth	r3, r3
 8001b0c:	f423 6300 	bic.w	r3, r3, #2048	; 0x800
 8001b10:	b29a      	uxth	r2, r3
 8001b12:	687b      	ldr	r3, [r7, #4]
 8001b14:	839a      	strh	r2, [r3, #28]
 8001b16:	683b      	ldr	r3, [r7, #0]
 8001b18:	8a1a      	ldrh	r2, [r3, #16]
 8001b1a:	687b      	ldr	r3, [r7, #4]
 8001b1c:	821a      	strh	r2, [r3, #16]
 8001b1e:	f107 0714 	add.w	r7, r7, #20
 8001b22:	46bd      	mov	sp, r7
 8001b24:	bc80      	pop	{r7}
 8001b26:	4770      	bx	lr

08001b28 <SPI_Cmd>:
 8001b28:	b480      	push	{r7}
 8001b2a:	b083      	sub	sp, #12
 8001b2c:	af00      	add	r7, sp, #0
 8001b2e:	6078      	str	r0, [r7, #4]
 8001b30:	460b      	mov	r3, r1
 8001b32:	70fb      	strb	r3, [r7, #3]
 8001b34:	78fb      	ldrb	r3, [r7, #3]
 8001b36:	2b00      	cmp	r3, #0
 8001b38:	d008      	beq.n	8001b4c <SPI_Cmd+0x24>
 8001b3a:	687b      	ldr	r3, [r7, #4]
 8001b3c:	881b      	ldrh	r3, [r3, #0]
 8001b3e:	b29b      	uxth	r3, r3
 8001b40:	f043 0340 	orr.w	r3, r3, #64	; 0x40
 8001b44:	b29a      	uxth	r2, r3
 8001b46:	687b      	ldr	r3, [r7, #4]
 8001b48:	801a      	strh	r2, [r3, #0]
 8001b4a:	e007      	b.n	8001b5c <SPI_Cmd+0x34>
 8001b4c:	687b      	ldr	r3, [r7, #4]
 8001b4e:	881b      	ldrh	r3, [r3, #0]
 8001b50:	b29b      	uxth	r3, r3
 8001b52:	f023 0340 	bic.w	r3, r3, #64	; 0x40
 8001b56:	b29a      	uxth	r2, r3
 8001b58:	687b      	ldr	r3, [r7, #4]
 8001b5a:	801a      	strh	r2, [r3, #0]
 8001b5c:	f107 070c 	add.w	r7, r7, #12
 8001b60:	46bd      	mov	sp, r7
 8001b62:	bc80      	pop	{r7}
 8001b64:	4770      	bx	lr
 8001b66:	bf00      	nop

08001b68 <SPI_I2S_ReceiveData>:
 8001b68:	b480      	push	{r7}
 8001b6a:	b083      	sub	sp, #12
 8001b6c:	af00      	add	r7, sp, #0
 8001b6e:	6078      	str	r0, [r7, #4]
 8001b70:	687b      	ldr	r3, [r7, #4]
 8001b72:	899b      	ldrh	r3, [r3, #12]
 8001b74:	b29b      	uxth	r3, r3
 8001b76:	4618      	mov	r0, r3
 8001b78:	f107 070c 	add.w	r7, r7, #12
 8001b7c:	46bd      	mov	sp, r7
 8001b7e:	bc80      	pop	{r7}
 8001b80:	4770      	bx	lr
 8001b82:	bf00      	nop

08001b84 <SPI_I2S_SendData>:
 8001b84:	b480      	push	{r7}
 8001b86:	b083      	sub	sp, #12
 8001b88:	af00      	add	r7, sp, #0
 8001b8a:	6078      	str	r0, [r7, #4]
 8001b8c:	460b      	mov	r3, r1
 8001b8e:	807b      	strh	r3, [r7, #2]
 8001b90:	687b      	ldr	r3, [r7, #4]
 8001b92:	887a      	ldrh	r2, [r7, #2]
 8001b94:	819a      	strh	r2, [r3, #12]
 8001b96:	f107 070c 	add.w	r7, r7, #12
 8001b9a:	46bd      	mov	sp, r7
 8001b9c:	bc80      	pop	{r7}
 8001b9e:	4770      	bx	lr

08001ba0 <SPI_I2S_GetFlagStatus>:
 8001ba0:	b480      	push	{r7}
 8001ba2:	b085      	sub	sp, #20
 8001ba4:	af00      	add	r7, sp, #0
 8001ba6:	6078      	str	r0, [r7, #4]
 8001ba8:	460b      	mov	r3, r1
 8001baa:	807b      	strh	r3, [r7, #2]
 8001bac:	f04f 0300 	mov.w	r3, #0
 8001bb0:	73fb      	strb	r3, [r7, #15]
 8001bb2:	687b      	ldr	r3, [r7, #4]
 8001bb4:	891b      	ldrh	r3, [r3, #8]
 8001bb6:	b29a      	uxth	r2, r3
 8001bb8:	887b      	ldrh	r3, [r7, #2]
 8001bba:	ea02 0303 	and.w	r3, r2, r3
 8001bbe:	b29b      	uxth	r3, r3
 8001bc0:	2b00      	cmp	r3, #0
 8001bc2:	d003      	beq.n	8001bcc <SPI_I2S_GetFlagStatus+0x2c>
 8001bc4:	f04f 0301 	mov.w	r3, #1
 8001bc8:	73fb      	strb	r3, [r7, #15]
 8001bca:	e002      	b.n	8001bd2 <SPI_I2S_GetFlagStatus+0x32>
 8001bcc:	f04f 0300 	mov.w	r3, #0
 8001bd0:	73fb      	strb	r3, [r7, #15]
 8001bd2:	7bfb      	ldrb	r3, [r7, #15]
 8001bd4:	4618      	mov	r0, r3
 8001bd6:	f107 0714 	add.w	r7, r7, #20
 8001bda:	46bd      	mov	sp, r7
 8001bdc:	bc80      	pop	{r7}
 8001bde:	4770      	bx	lr

08001be0 <SYSCFG_EXTILineConfig>:
 8001be0:	b490      	push	{r4, r7}
 8001be2:	b084      	sub	sp, #16
 8001be4:	af00      	add	r7, sp, #0
 8001be6:	4602      	mov	r2, r0
 8001be8:	460b      	mov	r3, r1
 8001bea:	71fa      	strb	r2, [r7, #7]
 8001bec:	71bb      	strb	r3, [r7, #6]
 8001bee:	f04f 0300 	mov.w	r3, #0
 8001bf2:	60fb      	str	r3, [r7, #12]
 8001bf4:	79bb      	ldrb	r3, [r7, #6]
 8001bf6:	f003 0303 	and.w	r3, r3, #3
 8001bfa:	ea4f 0383 	mov.w	r3, r3, lsl #2
 8001bfe:	f04f 020f 	mov.w	r2, #15
 8001c02:	fa02 f303 	lsl.w	r3, r2, r3
 8001c06:	60fb      	str	r3, [r7, #12]
 8001c08:	4b1b      	ldr	r3, [pc, #108]	; (8001c78 <SYSCFG_EXTILineConfig+0x98>)
 8001c0a:	79ba      	ldrb	r2, [r7, #6]
 8001c0c:	ea4f 0292 	mov.w	r2, r2, lsr #2
 8001c10:	b2d2      	uxtb	r2, r2
 8001c12:	4919      	ldr	r1, [pc, #100]	; (8001c78 <SYSCFG_EXTILineConfig+0x98>)
 8001c14:	79b8      	ldrb	r0, [r7, #6]
 8001c16:	ea4f 0090 	mov.w	r0, r0, lsr #2
 8001c1a:	b2c0      	uxtb	r0, r0
 8001c1c:	f100 0002 	add.w	r0, r0, #2
 8001c20:	f851 0020 	ldr.w	r0, [r1, r0, lsl #2]
 8001c24:	68f9      	ldr	r1, [r7, #12]
 8001c26:	ea6f 0101 	mvn.w	r1, r1
 8001c2a:	ea00 0101 	and.w	r1, r0, r1
 8001c2e:	f102 0202 	add.w	r2, r2, #2
 8001c32:	f843 1022 	str.w	r1, [r3, r2, lsl #2]
 8001c36:	4b10      	ldr	r3, [pc, #64]	; (8001c78 <SYSCFG_EXTILineConfig+0x98>)
 8001c38:	79ba      	ldrb	r2, [r7, #6]
 8001c3a:	ea4f 0292 	mov.w	r2, r2, lsr #2
 8001c3e:	b2d2      	uxtb	r2, r2
 8001c40:	490d      	ldr	r1, [pc, #52]	; (8001c78 <SYSCFG_EXTILineConfig+0x98>)
 8001c42:	79b8      	ldrb	r0, [r7, #6]
 8001c44:	ea4f 0090 	mov.w	r0, r0, lsr #2
 8001c48:	b2c0      	uxtb	r0, r0
 8001c4a:	f100 0002 	add.w	r0, r0, #2
 8001c4e:	f851 0020 	ldr.w	r0, [r1, r0, lsl #2]
 8001c52:	79fc      	ldrb	r4, [r7, #7]
 8001c54:	79b9      	ldrb	r1, [r7, #6]
 8001c56:	f001 0103 	and.w	r1, r1, #3
 8001c5a:	ea4f 0181 	mov.w	r1, r1, lsl #2
 8001c5e:	fa04 f101 	lsl.w	r1, r4, r1
 8001c62:	ea40 0101 	orr.w	r1, r0, r1
 8001c66:	f102 0202 	add.w	r2, r2, #2
 8001c6a:	f843 1022 	str.w	r1, [r3, r2, lsl #2]
 8001c6e:	f107 0710 	add.w	r7, r7, #16
 8001c72:	46bd      	mov	sp, r7
 8001c74:	bc90      	pop	{r4, r7}
 8001c76:	4770      	bx	lr
 8001c78:	40013800 	.word	0x40013800

08001c7c <TIM_TimeBaseInit>:
 8001c7c:	b480      	push	{r7}
 8001c7e:	b085      	sub	sp, #20
 8001c80:	af00      	add	r7, sp, #0
 8001c82:	6078      	str	r0, [r7, #4]
 8001c84:	6039      	str	r1, [r7, #0]
 8001c86:	f04f 0300 	mov.w	r3, #0
 8001c8a:	81fb      	strh	r3, [r7, #14]
 8001c8c:	687b      	ldr	r3, [r7, #4]
 8001c8e:	881b      	ldrh	r3, [r3, #0]
 8001c90:	81fb      	strh	r3, [r7, #14]
 8001c92:	687a      	ldr	r2, [r7, #4]
 8001c94:	4b29      	ldr	r3, [pc, #164]	; (8001d3c <TIM_TimeBaseInit+0xc0>)
 8001c96:	429a      	cmp	r2, r3
 8001c98:	d013      	beq.n	8001cc2 <TIM_TimeBaseInit+0x46>
 8001c9a:	687a      	ldr	r2, [r7, #4]
 8001c9c:	4b28      	ldr	r3, [pc, #160]	; (8001d40 <TIM_TimeBaseInit+0xc4>)
 8001c9e:	429a      	cmp	r2, r3
 8001ca0:	d00f      	beq.n	8001cc2 <TIM_TimeBaseInit+0x46>
 8001ca2:	687b      	ldr	r3, [r7, #4]
 8001ca4:	f1b3 4f80 	cmp.w	r3, #1073741824	; 0x40000000
 8001ca8:	d00b      	beq.n	8001cc2 <TIM_TimeBaseInit+0x46>
 8001caa:	687a      	ldr	r2, [r7, #4]
 8001cac:	4b25      	ldr	r3, [pc, #148]	; (8001d44 <TIM_TimeBaseInit+0xc8>)
 8001cae:	429a      	cmp	r2, r3
 8001cb0:	d007      	beq.n	8001cc2 <TIM_TimeBaseInit+0x46>
 8001cb2:	687a      	ldr	r2, [r7, #4]
 8001cb4:	4b24      	ldr	r3, [pc, #144]	; (8001d48 <TIM_TimeBaseInit+0xcc>)
 8001cb6:	429a      	cmp	r2, r3
 8001cb8:	d003      	beq.n	8001cc2 <TIM_TimeBaseInit+0x46>
 8001cba:	687a      	ldr	r2, [r7, #4]
 8001cbc:	4b23      	ldr	r3, [pc, #140]	; (8001d4c <TIM_TimeBaseInit+0xd0>)
 8001cbe:	429a      	cmp	r2, r3
 8001cc0:	d109      	bne.n	8001cd6 <TIM_TimeBaseInit+0x5a>
 8001cc2:	89fb      	ldrh	r3, [r7, #14]
 8001cc4:	f023 0370 	bic.w	r3, r3, #112	; 0x70
 8001cc8:	81fb      	strh	r3, [r7, #14]
 8001cca:	683b      	ldr	r3, [r7, #0]
 8001ccc:	885a      	ldrh	r2, [r3, #2]
 8001cce:	89fb      	ldrh	r3, [r7, #14]
 8001cd0:	ea42 0303 	orr.w	r3, r2, r3
 8001cd4:	81fb      	strh	r3, [r7, #14]
 8001cd6:	687a      	ldr	r2, [r7, #4]
 8001cd8:	4b1d      	ldr	r3, [pc, #116]	; (8001d50 <TIM_TimeBaseInit+0xd4>)
 8001cda:	429a      	cmp	r2, r3
 8001cdc:	d00d      	beq.n	8001cfa <TIM_TimeBaseInit+0x7e>
 8001cde:	687a      	ldr	r2, [r7, #4]
 8001ce0:	4b1c      	ldr	r3, [pc, #112]	; (8001d54 <TIM_TimeBaseInit+0xd8>)
 8001ce2:	429a      	cmp	r2, r3
 8001ce4:	d009      	beq.n	8001cfa <TIM_TimeBaseInit+0x7e>
 8001ce6:	89fb      	ldrh	r3, [r7, #14]
 8001ce8:	f423 7340 	bic.w	r3, r3, #768	; 0x300
 8001cec:	81fb      	strh	r3, [r7, #14]
 8001cee:	683b      	ldr	r3, [r7, #0]
 8001cf0:	891a      	ldrh	r2, [r3, #8]
 8001cf2:	89fb      	ldrh	r3, [r7, #14]
 8001cf4:	ea42 0303 	orr.w	r3, r2, r3
 8001cf8:	81fb      	strh	r3, [r7, #14]
 8001cfa:	687b      	ldr	r3, [r7, #4]
 8001cfc:	89fa      	ldrh	r2, [r7, #14]
 8001cfe:	801a      	strh	r2, [r3, #0]
 8001d00:	683b      	ldr	r3, [r7, #0]
 8001d02:	685a      	ldr	r2, [r3, #4]
 8001d04:	687b      	ldr	r3, [r7, #4]
 8001d06:	62da      	str	r2, [r3, #44]	; 0x2c
 8001d08:	683b      	ldr	r3, [r7, #0]
 8001d0a:	881a      	ldrh	r2, [r3, #0]
 8001d0c:	687b      	ldr	r3, [r7, #4]
 8001d0e:	851a      	strh	r2, [r3, #40]	; 0x28
 8001d10:	687a      	ldr	r2, [r7, #4]
 8001d12:	4b0a      	ldr	r3, [pc, #40]	; (8001d3c <TIM_TimeBaseInit+0xc0>)
 8001d14:	429a      	cmp	r2, r3
 8001d16:	d003      	beq.n	8001d20 <TIM_TimeBaseInit+0xa4>
 8001d18:	687a      	ldr	r2, [r7, #4]
 8001d1a:	4b09      	ldr	r3, [pc, #36]	; (8001d40 <TIM_TimeBaseInit+0xc4>)
 8001d1c:	429a      	cmp	r2, r3
 8001d1e:	d104      	bne.n	8001d2a <TIM_TimeBaseInit+0xae>
 8001d20:	683b      	ldr	r3, [r7, #0]
 8001d22:	7a9b      	ldrb	r3, [r3, #10]
 8001d24:	461a      	mov	r2, r3
 8001d26:	687b      	ldr	r3, [r7, #4]
 8001d28:	861a      	strh	r2, [r3, #48]	; 0x30
 8001d2a:	687b      	ldr	r3, [r7, #4]
 8001d2c:	f04f 0201 	mov.w	r2, #1
 8001d30:	829a      	strh	r2, [r3, #20]
 8001d32:	f107 0714 	add.w	r7, r7, #20
 8001d36:	46bd      	mov	sp, r7
 8001d38:	bc80      	pop	{r7}
 8001d3a:	4770      	bx	lr
 8001d3c:	40010000 	.word	0x40010000
 8001d40:	40010400 	.word	0x40010400
 8001d44:	40000400 	.word	0x40000400
 8001d48:	40000800 	.word	0x40000800
 8001d4c:	40000c00 	.word	0x40000c00
 8001d50:	40001000 	.word	0x40001000
 8001d54:	40001400 	.word	0x40001400

08001d58 <TIM_SetAutoreload>:
 8001d58:	b480      	push	{r7}
 8001d5a:	b083      	sub	sp, #12
 8001d5c:	af00      	add	r7, sp, #0
 8001d5e:	6078      	str	r0, [r7, #4]
 8001d60:	6039      	str	r1, [r7, #0]
 8001d62:	687b      	ldr	r3, [r7, #4]
 8001d64:	683a      	ldr	r2, [r7, #0]
 8001d66:	62da      	str	r2, [r3, #44]	; 0x2c
 8001d68:	f107 070c 	add.w	r7, r7, #12
 8001d6c:	46bd      	mov	sp, r7
 8001d6e:	bc80      	pop	{r7}
 8001d70:	4770      	bx	lr
 8001d72:	bf00      	nop

08001d74 <TIM_ARRPreloadConfig>:
 8001d74:	b480      	push	{r7}
 8001d76:	b083      	sub	sp, #12
 8001d78:	af00      	add	r7, sp, #0
 8001d7a:	6078      	str	r0, [r7, #4]
 8001d7c:	460b      	mov	r3, r1
 8001d7e:	70fb      	strb	r3, [r7, #3]
 8001d80:	78fb      	ldrb	r3, [r7, #3]
 8001d82:	2b00      	cmp	r3, #0
 8001d84:	d008      	beq.n	8001d98 <TIM_ARRPreloadConfig+0x24>
 8001d86:	687b      	ldr	r3, [r7, #4]
 8001d88:	881b      	ldrh	r3, [r3, #0]
 8001d8a:	b29b      	uxth	r3, r3
 8001d8c:	f043 0380 	orr.w	r3, r3, #128	; 0x80
 8001d90:	b29a      	uxth	r2, r3
 8001d92:	687b      	ldr	r3, [r7, #4]
 8001d94:	801a      	strh	r2, [r3, #0]
 8001d96:	e007      	b.n	8001da8 <TIM_ARRPreloadConfig+0x34>
 8001d98:	687b      	ldr	r3, [r7, #4]
 8001d9a:	881b      	ldrh	r3, [r3, #0]
 8001d9c:	b29b      	uxth	r3, r3
 8001d9e:	f023 0380 	bic.w	r3, r3, #128	; 0x80
 8001da2:	b29a      	uxth	r2, r3
 8001da4:	687b      	ldr	r3, [r7, #4]
 8001da6:	801a      	strh	r2, [r3, #0]
 8001da8:	f107 070c 	add.w	r7, r7, #12
 8001dac:	46bd      	mov	sp, r7
 8001dae:	bc80      	pop	{r7}
 8001db0:	4770      	bx	lr
 8001db2:	bf00      	nop

08001db4 <TIM_Cmd>:
 8001db4:	b480      	push	{r7}
 8001db6:	b083      	sub	sp, #12
 8001db8:	af00      	add	r7, sp, #0
 8001dba:	6078      	str	r0, [r7, #4]
 8001dbc:	460b      	mov	r3, r1
 8001dbe:	70fb      	strb	r3, [r7, #3]
 8001dc0:	78fb      	ldrb	r3, [r7, #3]
 8001dc2:	2b00      	cmp	r3, #0
 8001dc4:	d008      	beq.n	8001dd8 <TIM_Cmd+0x24>
 8001dc6:	687b      	ldr	r3, [r7, #4]
 8001dc8:	881b      	ldrh	r3, [r3, #0]
 8001dca:	b29b      	uxth	r3, r3
 8001dcc:	f043 0301 	orr.w	r3, r3, #1
 8001dd0:	b29a      	uxth	r2, r3
 8001dd2:	687b      	ldr	r3, [r7, #4]
 8001dd4:	801a      	strh	r2, [r3, #0]
 8001dd6:	e007      	b.n	8001de8 <TIM_Cmd+0x34>
 8001dd8:	687b      	ldr	r3, [r7, #4]
 8001dda:	881b      	ldrh	r3, [r3, #0]
 8001ddc:	b29b      	uxth	r3, r3
 8001dde:	f023 0301 	bic.w	r3, r3, #1
 8001de2:	b29a      	uxth	r2, r3
 8001de4:	687b      	ldr	r3, [r7, #4]
 8001de6:	801a      	strh	r2, [r3, #0]
 8001de8:	f107 070c 	add.w	r7, r7, #12
 8001dec:	46bd      	mov	sp, r7
 8001dee:	bc80      	pop	{r7}
 8001df0:	4770      	bx	lr
 8001df2:	bf00      	nop

08001df4 <TIM_OC1Init>:
 8001df4:	b480      	push	{r7}
 8001df6:	b085      	sub	sp, #20
 8001df8:	af00      	add	r7, sp, #0
 8001dfa:	6078      	str	r0, [r7, #4]
 8001dfc:	6039      	str	r1, [r7, #0]
 8001dfe:	f04f 0300 	mov.w	r3, #0
 8001e02:	817b      	strh	r3, [r7, #10]
 8001e04:	f04f 0300 	mov.w	r3, #0
 8001e08:	81fb      	strh	r3, [r7, #14]
 8001e0a:	f04f 0300 	mov.w	r3, #0
 8001e0e:	81bb      	strh	r3, [r7, #12]
 8001e10:	687b      	ldr	r3, [r7, #4]
 8001e12:	8c1b      	ldrh	r3, [r3, #32]
 8001e14:	b29b      	uxth	r3, r3
 8001e16:	f023 0301 	bic.w	r3, r3, #1
 8001e1a:	b29a      	uxth	r2, r3
 8001e1c:	687b      	ldr	r3, [r7, #4]
 8001e1e:	841a      	strh	r2, [r3, #32]
 8001e20:	687b      	ldr	r3, [r7, #4]
 8001e22:	8c1b      	ldrh	r3, [r3, #32]
 8001e24:	81fb      	strh	r3, [r7, #14]
 8001e26:	687b      	ldr	r3, [r7, #4]
 8001e28:	889b      	ldrh	r3, [r3, #4]
 8001e2a:	81bb      	strh	r3, [r7, #12]
 8001e2c:	687b      	ldr	r3, [r7, #4]
 8001e2e:	8b1b      	ldrh	r3, [r3, #24]
 8001e30:	817b      	strh	r3, [r7, #10]
 8001e32:	897b      	ldrh	r3, [r7, #10]
 8001e34:	f023 0370 	bic.w	r3, r3, #112	; 0x70
 8001e38:	817b      	strh	r3, [r7, #10]
 8001e3a:	897b      	ldrh	r3, [r7, #10]
 8001e3c:	f023 0303 	bic.w	r3, r3, #3
 8001e40:	817b      	strh	r3, [r7, #10]
 8001e42:	683b      	ldr	r3, [r7, #0]
 8001e44:	881a      	ldrh	r2, [r3, #0]
 8001e46:	897b      	ldrh	r3, [r7, #10]
 8001e48:	ea42 0303 	orr.w	r3, r2, r3
 8001e4c:	817b      	strh	r3, [r7, #10]
 8001e4e:	89fb      	ldrh	r3, [r7, #14]
 8001e50:	f023 0302 	bic.w	r3, r3, #2
 8001e54:	81fb      	strh	r3, [r7, #14]
 8001e56:	683b      	ldr	r3, [r7, #0]
 8001e58:	899a      	ldrh	r2, [r3, #12]
 8001e5a:	89fb      	ldrh	r3, [r7, #14]
 8001e5c:	ea42 0303 	orr.w	r3, r2, r3
 8001e60:	81fb      	strh	r3, [r7, #14]
 8001e62:	683b      	ldr	r3, [r7, #0]
 8001e64:	885a      	ldrh	r2, [r3, #2]
 8001e66:	89fb      	ldrh	r3, [r7, #14]
 8001e68:	ea42 0303 	orr.w	r3, r2, r3
 8001e6c:	81fb      	strh	r3, [r7, #14]
 8001e6e:	687a      	ldr	r2, [r7, #4]
 8001e70:	4b20      	ldr	r3, [pc, #128]	; (8001ef4 <TIM_OC1Init+0x100>)
 8001e72:	429a      	cmp	r2, r3
 8001e74:	d003      	beq.n	8001e7e <TIM_OC1Init+0x8a>
 8001e76:	687a      	ldr	r2, [r7, #4]
 8001e78:	4b1f      	ldr	r3, [pc, #124]	; (8001ef8 <TIM_OC1Init+0x104>)
 8001e7a:	429a      	cmp	r2, r3
 8001e7c:	d127      	bne.n	8001ece <TIM_OC1Init+0xda>
 8001e7e:	89fb      	ldrh	r3, [r7, #14]
 8001e80:	f023 0308 	bic.w	r3, r3, #8
 8001e84:	81fb      	strh	r3, [r7, #14]
 8001e86:	683b      	ldr	r3, [r7, #0]
 8001e88:	89da      	ldrh	r2, [r3, #14]
 8001e8a:	89fb      	ldrh	r3, [r7, #14]
 8001e8c:	ea42 0303 	orr.w	r3, r2, r3
 8001e90:	81fb      	strh	r3, [r7, #14]
 8001e92:	89fb      	ldrh	r3, [r7, #14]
 8001e94:	f023 0304 	bic.w	r3, r3, #4
 8001e98:	81fb      	strh	r3, [r7, #14]
 8001e9a:	683b      	ldr	r3, [r7, #0]
 8001e9c:	889a      	ldrh	r2, [r3, #4]
 8001e9e:	89fb      	ldrh	r3, [r7, #14]
 8001ea0:	ea42 0303 	orr.w	r3, r2, r3
 8001ea4:	81fb      	strh	r3, [r7, #14]
 8001ea6:	89bb      	ldrh	r3, [r7, #12]
 8001ea8:	f423 7380 	bic.w	r3, r3, #256	; 0x100
 8001eac:	81bb      	strh	r3, [r7, #12]
 8001eae:	89bb      	ldrh	r3, [r7, #12]
 8001eb0:	f423 7300 	bic.w	r3, r3, #512	; 0x200
 8001eb4:	81bb      	strh	r3, [r7, #12]
 8001eb6:	683b      	ldr	r3, [r7, #0]
 8001eb8:	8a1a      	ldrh	r2, [r3, #16]
 8001eba:	89bb      	ldrh	r3, [r7, #12]
 8001ebc:	ea42 0303 	orr.w	r3, r2, r3
 8001ec0:	81bb      	strh	r3, [r7, #12]
 8001ec2:	683b      	ldr	r3, [r7, #0]
 8001ec4:	8a5a      	ldrh	r2, [r3, #18]
 8001ec6:	89bb      	ldrh	r3, [r7, #12]
 8001ec8:	ea42 0303 	orr.w	r3, r2, r3
 8001ecc:	81bb      	strh	r3, [r7, #12]
 8001ece:	687b      	ldr	r3, [r7, #4]
 8001ed0:	89ba      	ldrh	r2, [r7, #12]
 8001ed2:	809a      	strh	r2, [r3, #4]
 8001ed4:	687b      	ldr	r3, [r7, #4]
 8001ed6:	897a      	ldrh	r2, [r7, #10]
 8001ed8:	831a      	strh	r2, [r3, #24]
 8001eda:	683b      	ldr	r3, [r7, #0]
 8001edc:	689a      	ldr	r2, [r3, #8]
 8001ede:	687b      	ldr	r3, [r7, #4]
 8001ee0:	635a      	str	r2, [r3, #52]	; 0x34
 8001ee2:	687b      	ldr	r3, [r7, #4]
 8001ee4:	89fa      	ldrh	r2, [r7, #14]
 8001ee6:	841a      	strh	r2, [r3, #32]
 8001ee8:	f107 0714 	add.w	r7, r7, #20
 8001eec:	46bd      	mov	sp, r7
 8001eee:	bc80      	pop	{r7}
 8001ef0:	4770      	bx	lr
 8001ef2:	bf00      	nop
 8001ef4:	40010000 	.word	0x40010000
 8001ef8:	40010400 	.word	0x40010400

08001efc <TIM_OC2Init>:
 8001efc:	b480      	push	{r7}
 8001efe:	b085      	sub	sp, #20
 8001f00:	af00      	add	r7, sp, #0
 8001f02:	6078      	str	r0, [r7, #4]
 8001f04:	6039      	str	r1, [r7, #0]
 8001f06:	f04f 0300 	mov.w	r3, #0
 8001f0a:	817b      	strh	r3, [r7, #10]
 8001f0c:	f04f 0300 	mov.w	r3, #0
 8001f10:	81fb      	strh	r3, [r7, #14]
 8001f12:	f04f 0300 	mov.w	r3, #0
 8001f16:	81bb      	strh	r3, [r7, #12]
 8001f18:	687b      	ldr	r3, [r7, #4]
 8001f1a:	8c1b      	ldrh	r3, [r3, #32]
 8001f1c:	b29b      	uxth	r3, r3
 8001f1e:	f023 0310 	bic.w	r3, r3, #16
 8001f22:	b29a      	uxth	r2, r3
 8001f24:	687b      	ldr	r3, [r7, #4]
 8001f26:	841a      	strh	r2, [r3, #32]
 8001f28:	687b      	ldr	r3, [r7, #4]
 8001f2a:	8c1b      	ldrh	r3, [r3, #32]
 8001f2c:	81fb      	strh	r3, [r7, #14]
 8001f2e:	687b      	ldr	r3, [r7, #4]
 8001f30:	889b      	ldrh	r3, [r3, #4]
 8001f32:	81bb      	strh	r3, [r7, #12]
 8001f34:	687b      	ldr	r3, [r7, #4]
 8001f36:	8b1b      	ldrh	r3, [r3, #24]
 8001f38:	817b      	strh	r3, [r7, #10]
 8001f3a:	897b      	ldrh	r3, [r7, #10]
 8001f3c:	f423 43e0 	bic.w	r3, r3, #28672	; 0x7000
 8001f40:	817b      	strh	r3, [r7, #10]
 8001f42:	897b      	ldrh	r3, [r7, #10]
 8001f44:	f423 7340 	bic.w	r3, r3, #768	; 0x300
 8001f48:	817b      	strh	r3, [r7, #10]
 8001f4a:	683b      	ldr	r3, [r7, #0]
 8001f4c:	881b      	ldrh	r3, [r3, #0]
 8001f4e:	ea4f 2303 	mov.w	r3, r3, lsl #8
 8001f52:	b29a      	uxth	r2, r3
 8001f54:	897b      	ldrh	r3, [r7, #10]
 8001f56:	ea42 0303 	orr.w	r3, r2, r3
 8001f5a:	817b      	strh	r3, [r7, #10]
 8001f5c:	89fb      	ldrh	r3, [r7, #14]
 8001f5e:	f023 0320 	bic.w	r3, r3, #32
 8001f62:	81fb      	strh	r3, [r7, #14]
 8001f64:	683b      	ldr	r3, [r7, #0]
 8001f66:	899b      	ldrh	r3, [r3, #12]
 8001f68:	ea4f 1303 	mov.w	r3, r3, lsl #4
 8001f6c:	b29a      	uxth	r2, r3
 8001f6e:	89fb      	ldrh	r3, [r7, #14]
 8001f70:	ea42 0303 	orr.w	r3, r2, r3
 8001f74:	81fb      	strh	r3, [r7, #14]
 8001f76:	683b      	ldr	r3, [r7, #0]
 8001f78:	885b      	ldrh	r3, [r3, #2]
 8001f7a:	ea4f 1303 	mov.w	r3, r3, lsl #4
 8001f7e:	b29a      	uxth	r2, r3
 8001f80:	89fb      	ldrh	r3, [r7, #14]
 8001f82:	ea42 0303 	orr.w	r3, r2, r3
 8001f86:	81fb      	strh	r3, [r7, #14]
 8001f88:	687a      	ldr	r2, [r7, #4]
 8001f8a:	4b26      	ldr	r3, [pc, #152]	; (8002024 <TIM_OC2Init+0x128>)
 8001f8c:	429a      	cmp	r2, r3
 8001f8e:	d003      	beq.n	8001f98 <TIM_OC2Init+0x9c>
 8001f90:	687a      	ldr	r2, [r7, #4]
 8001f92:	4b25      	ldr	r3, [pc, #148]	; (8002028 <TIM_OC2Init+0x12c>)
 8001f94:	429a      	cmp	r2, r3
 8001f96:	d133      	bne.n	8002000 <TIM_OC2Init+0x104>
 8001f98:	89fb      	ldrh	r3, [r7, #14]
 8001f9a:	f023 0380 	bic.w	r3, r3, #128	; 0x80
 8001f9e:	81fb      	strh	r3, [r7, #14]
 8001fa0:	683b      	ldr	r3, [r7, #0]
 8001fa2:	89db      	ldrh	r3, [r3, #14]
 8001fa4:	ea4f 1303 	mov.w	r3, r3, lsl #4
 8001fa8:	b29a      	uxth	r2, r3
 8001faa:	89fb      	ldrh	r3, [r7, #14]
 8001fac:	ea42 0303 	orr.w	r3, r2, r3
 8001fb0:	81fb      	strh	r3, [r7, #14]
 8001fb2:	89fb      	ldrh	r3, [r7, #14]
 8001fb4:	f023 0340 	bic.w	r3, r3, #64	; 0x40
 8001fb8:	81fb      	strh	r3, [r7, #14]
 8001fba:	683b      	ldr	r3, [r7, #0]
 8001fbc:	889b      	ldrh	r3, [r3, #4]
 8001fbe:	ea4f 1303 	mov.w	r3, r3, lsl #4
 8001fc2:	b29a      	uxth	r2, r3
 8001fc4:	89fb      	ldrh	r3, [r7, #14]
 8001fc6:	ea42 0303 	orr.w	r3, r2, r3
 8001fca:	81fb      	strh	r3, [r7, #14]
 8001fcc:	89bb      	ldrh	r3, [r7, #12]
 8001fce:	f423 6380 	bic.w	r3, r3, #1024	; 0x400
 8001fd2:	81bb      	strh	r3, [r7, #12]
 8001fd4:	89bb      	ldrh	r3, [r7, #12]
 8001fd6:	f423 6300 	bic.w	r3, r3, #2048	; 0x800
 8001fda:	81bb      	strh	r3, [r7, #12]
 8001fdc:	683b      	ldr	r3, [r7, #0]
 8001fde:	8a1b      	ldrh	r3, [r3, #16]
 8001fe0:	ea4f 0383 	mov.w	r3, r3, lsl #2
 8001fe4:	b29a      	uxth	r2, r3
 8001fe6:	89bb      	ldrh	r3, [r7, #12]
 8001fe8:	ea42 0303 	orr.w	r3, r2, r3
 8001fec:	81bb      	strh	r3, [r7, #12]
 8001fee:	683b      	ldr	r3, [r7, #0]
 8001ff0:	8a5b      	ldrh	r3, [r3, #18]
 8001ff2:	ea4f 0383 	mov.w	r3, r3, lsl #2
 8001ff6:	b29a      	uxth	r2, r3
 8001ff8:	89bb      	ldrh	r3, [r7, #12]
 8001ffa:	ea42 0303 	orr.w	r3, r2, r3
 8001ffe:	81bb      	strh	r3, [r7, #12]
 8002000:	687b      	ldr	r3, [r7, #4]
 8002002:	89ba      	ldrh	r2, [r7, #12]
 8002004:	809a      	strh	r2, [r3, #4]
 8002006:	687b      	ldr	r3, [r7, #4]
 8002008:	897a      	ldrh	r2, [r7, #10]
 800200a:	831a      	strh	r2, [r3, #24]
 800200c:	683b      	ldr	r3, [r7, #0]
 800200e:	689a      	ldr	r2, [r3, #8]
 8002010:	687b      	ldr	r3, [r7, #4]
 8002012:	639a      	str	r2, [r3, #56]	; 0x38
 8002014:	687b      	ldr	r3, [r7, #4]
 8002016:	89fa      	ldrh	r2, [r7, #14]
 8002018:	841a      	strh	r2, [r3, #32]
 800201a:	f107 0714 	add.w	r7, r7, #20
 800201e:	46bd      	mov	sp, r7
 8002020:	bc80      	pop	{r7}
 8002022:	4770      	bx	lr
 8002024:	40010000 	.word	0x40010000
 8002028:	40010400 	.word	0x40010400

0800202c <TIM_OC3Init>:
 800202c:	b480      	push	{r7}
 800202e:	b085      	sub	sp, #20
 8002030:	af00      	add	r7, sp, #0
 8002032:	6078      	str	r0, [r7, #4]
 8002034:	6039      	str	r1, [r7, #0]
 8002036:	f04f 0300 	mov.w	r3, #0
 800203a:	817b      	strh	r3, [r7, #10]
 800203c:	f04f 0300 	mov.w	r3, #0
 8002040:	81fb      	strh	r3, [r7, #14]
 8002042:	f04f 0300 	mov.w	r3, #0
 8002046:	81bb      	strh	r3, [r7, #12]
 8002048:	687b      	ldr	r3, [r7, #4]
 800204a:	8c1b      	ldrh	r3, [r3, #32]
 800204c:	b29b      	uxth	r3, r3
 800204e:	f423 7380 	bic.w	r3, r3, #256	; 0x100
 8002052:	b29a      	uxth	r2, r3
 8002054:	687b      	ldr	r3, [r7, #4]
 8002056:	841a      	strh	r2, [r3, #32]
 8002058:	687b      	ldr	r3, [r7, #4]
 800205a:	8c1b      	ldrh	r3, [r3, #32]
 800205c:	81fb      	strh	r3, [r7, #14]
 800205e:	687b      	ldr	r3, [r7, #4]
 8002060:	889b      	ldrh	r3, [r3, #4]
 8002062:	81bb      	strh	r3, [r7, #12]
 8002064:	687b      	ldr	r3, [r7, #4]
 8002066:	8b9b      	ldrh	r3, [r3, #28]
 8002068:	817b      	strh	r3, [r7, #10]
 800206a:	897b      	ldrh	r3, [r7, #10]
 800206c:	f023 0370 	bic.w	r3, r3, #112	; 0x70
 8002070:	817b      	strh	r3, [r7, #10]
 8002072:	897b      	ldrh	r3, [r7, #10]
 8002074:	f023 0303 	bic.w	r3, r3, #3
 8002078:	817b      	strh	r3, [r7, #10]
 800207a:	683b      	ldr	r3, [r7, #0]
 800207c:	881a      	ldrh	r2, [r3, #0]
 800207e:	897b      	ldrh	r3, [r7, #10]
 8002080:	ea42 0303 	orr.w	r3, r2, r3
 8002084:	817b      	strh	r3, [r7, #10]
 8002086:	89fb      	ldrh	r3, [r7, #14]
 8002088:	f423 7300 	bic.w	r3, r3, #512	; 0x200
 800208c:	81fb      	strh	r3, [r7, #14]
 800208e:	683b      	ldr	r3, [r7, #0]
 8002090:	899b      	ldrh	r3, [r3, #12]
 8002092:	ea4f 2303 	mov.w	r3, r3, lsl #8
 8002096:	b29a      	uxth	r2, r3
 8002098:	89fb      	ldrh	r3, [r7, #14]
 800209a:	ea42 0303 	orr.w	r3, r2, r3
 800209e:	81fb      	strh	r3, [r7, #14]
 80020a0:	683b      	ldr	r3, [r7, #0]
 80020a2:	885b      	ldrh	r3, [r3, #2]
 80020a4:	ea4f 2303 	mov.w	r3, r3, lsl #8
 80020a8:	b29a      	uxth	r2, r3
 80020aa:	89fb      	ldrh	r3, [r7, #14]
 80020ac:	ea42 0303 	orr.w	r3, r2, r3
 80020b0:	81fb      	strh	r3, [r7, #14]
 80020b2:	687a      	ldr	r2, [r7, #4]
 80020b4:	4b26      	ldr	r3, [pc, #152]	; (8002150 <TIM_OC3Init+0x124>)
 80020b6:	429a      	cmp	r2, r3
 80020b8:	d003      	beq.n	80020c2 <TIM_OC3Init+0x96>
 80020ba:	687a      	ldr	r2, [r7, #4]
 80020bc:	4b25      	ldr	r3, [pc, #148]	; (8002154 <TIM_OC3Init+0x128>)
 80020be:	429a      	cmp	r2, r3
 80020c0:	d133      	bne.n	800212a <TIM_OC3Init+0xfe>
 80020c2:	89fb      	ldrh	r3, [r7, #14]
 80020c4:	f423 6300 	bic.w	r3, r3, #2048	; 0x800
 80020c8:	81fb      	strh	r3, [r7, #14]
 80020ca:	683b      	ldr	r3, [r7, #0]
 80020cc:	89db      	ldrh	r3, [r3, #14]
 80020ce:	ea4f 2303 	mov.w	r3, r3, lsl #8
 80020d2:	b29a      	uxth	r2, r3
 80020d4:	89fb      	ldrh	r3, [r7, #14]
 80020d6:	ea42 0303 	orr.w	r3, r2, r3
 80020da:	81fb      	strh	r3, [r7, #14]
 80020dc:	89fb      	ldrh	r3, [r7, #14]
 80020de:	f423 6380 	bic.w	r3, r3, #1024	; 0x400
 80020e2:	81fb      	strh	r3, [r7, #14]
 80020e4:	683b      	ldr	r3, [r7, #0]
 80020e6:	889b      	ldrh	r3, [r3, #4]
 80020e8:	ea4f 2303 	mov.w	r3, r3, lsl #8
 80020ec:	b29a      	uxth	r2, r3
 80020ee:	89fb      	ldrh	r3, [r7, #14]
 80020f0:	ea42 0303 	orr.w	r3, r2, r3
 80020f4:	81fb      	strh	r3, [r7, #14]
 80020f6:	89bb      	ldrh	r3, [r7, #12]
 80020f8:	f423 5380 	bic.w	r3, r3, #4096	; 0x1000
 80020fc:	81bb      	strh	r3, [r7, #12]
 80020fe:	89bb      	ldrh	r3, [r7, #12]
 8002100:	f423 5300 	bic.w	r3, r3, #8192	; 0x2000
 8002104:	81bb      	strh	r3, [r7, #12]
 8002106:	683b      	ldr	r3, [r7, #0]
 8002108:	8a1b      	ldrh	r3, [r3, #16]
 800210a:	ea4f 1303 	mov.w	r3, r3, lsl #4
 800210e:	b29a      	uxth	r2, r3
 8002110:	89bb      	ldrh	r3, [r7, #12]
 8002112:	ea42 0303 	orr.w	r3, r2, r3
 8002116:	81bb      	strh	r3, [r7, #12]
 8002118:	683b      	ldr	r3, [r7, #0]
 800211a:	8a5b      	ldrh	r3, [r3, #18]
 800211c:	ea4f 1303 	mov.w	r3, r3, lsl #4
 8002120:	b29a      	uxth	r2, r3
 8002122:	89bb      	ldrh	r3, [r7, #12]
 8002124:	ea42 0303 	orr.w	r3, r2, r3
 8002128:	81bb      	strh	r3, [r7, #12]
 800212a:	687b      	ldr	r3, [r7, #4]
 800212c:	89ba      	ldrh	r2, [r7, #12]
 800212e:	809a      	strh	r2, [r3, #4]
 8002130:	687b      	ldr	r3, [r7, #4]
 8002132:	897a      	ldrh	r2, [r7, #10]
 8002134:	839a      	strh	r2, [r3, #28]
 8002136:	683b      	ldr	r3, [r7, #0]
 8002138:	689a      	ldr	r2, [r3, #8]
 800213a:	687b      	ldr	r3, [r7, #4]
 800213c:	63da      	str	r2, [r3, #60]	; 0x3c
 800213e:	687b      	ldr	r3, [r7, #4]
 8002140:	89fa      	ldrh	r2, [r7, #14]
 8002142:	841a      	strh	r2, [r3, #32]
 8002144:	f107 0714 	add.w	r7, r7, #20
 8002148:	46bd      	mov	sp, r7
 800214a:	bc80      	pop	{r7}
 800214c:	4770      	bx	lr
 800214e:	bf00      	nop
 8002150:	40010000 	.word	0x40010000
 8002154:	40010400 	.word	0x40010400

08002158 <TIM_OC4Init>:
 8002158:	b480      	push	{r7}
 800215a:	b085      	sub	sp, #20
 800215c:	af00      	add	r7, sp, #0
 800215e:	6078      	str	r0, [r7, #4]
 8002160:	6039      	str	r1, [r7, #0]
 8002162:	f04f 0300 	mov.w	r3, #0
 8002166:	81bb      	strh	r3, [r7, #12]
 8002168:	f04f 0300 	mov.w	r3, #0
 800216c:	817b      	strh	r3, [r7, #10]
 800216e:	f04f 0300 	mov.w	r3, #0
 8002172:	81fb      	strh	r3, [r7, #14]
 8002174:	687b      	ldr	r3, [r7, #4]
 8002176:	8c1b      	ldrh	r3, [r3, #32]
 8002178:	b29b      	uxth	r3, r3
 800217a:	f423 5380 	bic.w	r3, r3, #4096	; 0x1000
 800217e:	b29a      	uxth	r2, r3
 8002180:	687b      	ldr	r3, [r7, #4]
 8002182:	841a      	strh	r2, [r3, #32]
 8002184:	687b      	ldr	r3, [r7, #4]
 8002186:	8c1b      	ldrh	r3, [r3, #32]
 8002188:	817b      	strh	r3, [r7, #10]
 800218a:	687b      	ldr	r3, [r7, #4]
 800218c:	889b      	ldrh	r3, [r3, #4]
 800218e:	81fb      	strh	r3, [r7, #14]
 8002190:	687b      	ldr	r3, [r7, #4]
 8002192:	8b9b      	ldrh	r3, [r3, #28]
 8002194:	81bb      	strh	r3, [r7, #12]
 8002196:	89bb      	ldrh	r3, [r7, #12]
 8002198:	f423 43e0 	bic.w	r3, r3, #28672	; 0x7000
 800219c:	81bb      	strh	r3, [r7, #12]
 800219e:	89bb      	ldrh	r3, [r7, #12]
 80021a0:	f423 7340 	bic.w	r3, r3, #768	; 0x300
 80021a4:	81bb      	strh	r3, [r7, #12]
 80021a6:	683b      	ldr	r3, [r7, #0]
 80021a8:	881b      	ldrh	r3, [r3, #0]
 80021aa:	ea4f 2303 	mov.w	r3, r3, lsl #8
 80021ae:	b29a      	uxth	r2, r3
 80021b0:	89bb      	ldrh	r3, [r7, #12]
 80021b2:	ea42 0303 	orr.w	r3, r2, r3
 80021b6:	81bb      	strh	r3, [r7, #12]
 80021b8:	897b      	ldrh	r3, [r7, #10]
 80021ba:	f423 5300 	bic.w	r3, r3, #8192	; 0x2000
 80021be:	817b      	strh	r3, [r7, #10]
 80021c0:	683b      	ldr	r3, [r7, #0]
 80021c2:	899b      	ldrh	r3, [r3, #12]
 80021c4:	ea4f 3303 	mov.w	r3, r3, lsl #12
 80021c8:	b29a      	uxth	r2, r3
 80021ca:	897b      	ldrh	r3, [r7, #10]
 80021cc:	ea42 0303 	orr.w	r3, r2, r3
 80021d0:	817b      	strh	r3, [r7, #10]
 80021d2:	683b      	ldr	r3, [r7, #0]
 80021d4:	885b      	ldrh	r3, [r3, #2]
 80021d6:	ea4f 3303 	mov.w	r3, r3, lsl #12
 80021da:	b29a      	uxth	r2, r3
 80021dc:	897b      	ldrh	r3, [r7, #10]
 80021de:	ea42 0303 	orr.w	r3, r2, r3
 80021e2:	817b      	strh	r3, [r7, #10]
 80021e4:	687a      	ldr	r2, [r7, #4]
 80021e6:	4b13      	ldr	r3, [pc, #76]	; (8002234 <TIM_OC4Init+0xdc>)
 80021e8:	429a      	cmp	r2, r3
 80021ea:	d003      	beq.n	80021f4 <TIM_OC4Init+0x9c>
 80021ec:	687a      	ldr	r2, [r7, #4]
 80021ee:	4b12      	ldr	r3, [pc, #72]	; (8002238 <TIM_OC4Init+0xe0>)
 80021f0:	429a      	cmp	r2, r3
 80021f2:	d10c      	bne.n	800220e <TIM_OC4Init+0xb6>
 80021f4:	89fb      	ldrh	r3, [r7, #14]
 80021f6:	f423 4380 	bic.w	r3, r3, #16384	; 0x4000
 80021fa:	81fb      	strh	r3, [r7, #14]
 80021fc:	683b      	ldr	r3, [r7, #0]
 80021fe:	8a1b      	ldrh	r3, [r3, #16]
 8002200:	ea4f 1383 	mov.w	r3, r3, lsl #6
 8002204:	b29a      	uxth	r2, r3
 8002206:	89fb      	ldrh	r3, [r7, #14]
 8002208:	ea42 0303 	orr.w	r3, r2, r3
 800220c:	81fb      	strh	r3, [r7, #14]
 800220e:	687b      	ldr	r3, [r7, #4]
 8002210:	89fa      	ldrh	r2, [r7, #14]
 8002212:	809a      	strh	r2, [r3, #4]
 8002214:	687b      	ldr	r3, [r7, #4]
 8002216:	89ba      	ldrh	r2, [r7, #12]
 8002218:	839a      	strh	r2, [r3, #28]
 800221a:	683b      	ldr	r3, [r7, #0]
 800221c:	689a      	ldr	r2, [r3, #8]
 800221e:	687b      	ldr	r3, [r7, #4]
 8002220:	641a      	str	r2, [r3, #64]	; 0x40
 8002222:	687b      	ldr	r3, [r7, #4]
 8002224:	897a      	ldrh	r2, [r7, #10]
 8002226:	841a      	strh	r2, [r3, #32]
 8002228:	f107 0714 	add.w	r7, r7, #20
 800222c:	46bd      	mov	sp, r7
 800222e:	bc80      	pop	{r7}
 8002230:	4770      	bx	lr
 8002232:	bf00      	nop
 8002234:	40010000 	.word	0x40010000
 8002238:	40010400 	.word	0x40010400

0800223c <TIM_SetCompare1>:
 800223c:	b480      	push	{r7}
 800223e:	b083      	sub	sp, #12
 8002240:	af00      	add	r7, sp, #0
 8002242:	6078      	str	r0, [r7, #4]
 8002244:	6039      	str	r1, [r7, #0]
 8002246:	687b      	ldr	r3, [r7, #4]
 8002248:	683a      	ldr	r2, [r7, #0]
 800224a:	635a      	str	r2, [r3, #52]	; 0x34
 800224c:	f107 070c 	add.w	r7, r7, #12
 8002250:	46bd      	mov	sp, r7
 8002252:	bc80      	pop	{r7}
 8002254:	4770      	bx	lr
 8002256:	bf00      	nop

08002258 <TIM_SetCompare2>:
 8002258:	b480      	push	{r7}
 800225a:	b083      	sub	sp, #12
 800225c:	af00      	add	r7, sp, #0
 800225e:	6078      	str	r0, [r7, #4]
 8002260:	6039      	str	r1, [r7, #0]
 8002262:	687b      	ldr	r3, [r7, #4]
 8002264:	683a      	ldr	r2, [r7, #0]
 8002266:	639a      	str	r2, [r3, #56]	; 0x38
 8002268:	f107 070c 	add.w	r7, r7, #12
 800226c:	46bd      	mov	sp, r7
 800226e:	bc80      	pop	{r7}
 8002270:	4770      	bx	lr
 8002272:	bf00      	nop

08002274 <TIM_SetCompare3>:
 8002274:	b480      	push	{r7}
 8002276:	b083      	sub	sp, #12
 8002278:	af00      	add	r7, sp, #0
 800227a:	6078      	str	r0, [r7, #4]
 800227c:	6039      	str	r1, [r7, #0]
 800227e:	687b      	ldr	r3, [r7, #4]
 8002280:	683a      	ldr	r2, [r7, #0]
 8002282:	63da      	str	r2, [r3, #60]	; 0x3c
 8002284:	f107 070c 	add.w	r7, r7, #12
 8002288:	46bd      	mov	sp, r7
 800228a:	bc80      	pop	{r7}
 800228c:	4770      	bx	lr
 800228e:	bf00      	nop

08002290 <TIM_SetCompare4>:
 8002290:	b480      	push	{r7}
 8002292:	b083      	sub	sp, #12
 8002294:	af00      	add	r7, sp, #0
 8002296:	6078      	str	r0, [r7, #4]
 8002298:	6039      	str	r1, [r7, #0]
 800229a:	687b      	ldr	r3, [r7, #4]
 800229c:	683a      	ldr	r2, [r7, #0]
 800229e:	641a      	str	r2, [r3, #64]	; 0x40
 80022a0:	f107 070c 	add.w	r7, r7, #12
 80022a4:	46bd      	mov	sp, r7
 80022a6:	bc80      	pop	{r7}
 80022a8:	4770      	bx	lr
 80022aa:	bf00      	nop

080022ac <TIM_OC1PreloadConfig>:
 80022ac:	b480      	push	{r7}
 80022ae:	b085      	sub	sp, #20
 80022b0:	af00      	add	r7, sp, #0
 80022b2:	6078      	str	r0, [r7, #4]
 80022b4:	460b      	mov	r3, r1
 80022b6:	807b      	strh	r3, [r7, #2]
 80022b8:	f04f 0300 	mov.w	r3, #0
 80022bc:	81fb      	strh	r3, [r7, #14]
 80022be:	687b      	ldr	r3, [r7, #4]
 80022c0:	8b1b      	ldrh	r3, [r3, #24]
 80022c2:	81fb      	strh	r3, [r7, #14]
 80022c4:	89fb      	ldrh	r3, [r7, #14]
 80022c6:	f023 0308 	bic.w	r3, r3, #8
 80022ca:	81fb      	strh	r3, [r7, #14]
 80022cc:	89fa      	ldrh	r2, [r7, #14]
 80022ce:	887b      	ldrh	r3, [r7, #2]
 80022d0:	ea42 0303 	orr.w	r3, r2, r3
 80022d4:	81fb      	strh	r3, [r7, #14]
 80022d6:	687b      	ldr	r3, [r7, #4]
 80022d8:	89fa      	ldrh	r2, [r7, #14]
 80022da:	831a      	strh	r2, [r3, #24]
 80022dc:	f107 0714 	add.w	r7, r7, #20
 80022e0:	46bd      	mov	sp, r7
 80022e2:	bc80      	pop	{r7}
 80022e4:	4770      	bx	lr
 80022e6:	bf00      	nop

080022e8 <TIM_OC2PreloadConfig>:
 80022e8:	b480      	push	{r7}
 80022ea:	b085      	sub	sp, #20
 80022ec:	af00      	add	r7, sp, #0
 80022ee:	6078      	str	r0, [r7, #4]
 80022f0:	460b      	mov	r3, r1
 80022f2:	807b      	strh	r3, [r7, #2]
 80022f4:	f04f 0300 	mov.w	r3, #0
 80022f8:	81fb      	strh	r3, [r7, #14]
 80022fa:	687b      	ldr	r3, [r7, #4]
 80022fc:	8b1b      	ldrh	r3, [r3, #24]
 80022fe:	81fb      	strh	r3, [r7, #14]
 8002300:	89fb      	ldrh	r3, [r7, #14]
 8002302:	f423 6300 	bic.w	r3, r3, #2048	; 0x800
 8002306:	81fb      	strh	r3, [r7, #14]
 8002308:	887b      	ldrh	r3, [r7, #2]
 800230a:	ea4f 2303 	mov.w	r3, r3, lsl #8
 800230e:	b29a      	uxth	r2, r3
 8002310:	89fb      	ldrh	r3, [r7, #14]
 8002312:	ea42 0303 	orr.w	r3, r2, r3
 8002316:	81fb      	strh	r3, [r7, #14]
 8002318:	687b      	ldr	r3, [r7, #4]
 800231a:	89fa      	ldrh	r2, [r7, #14]
 800231c:	831a      	strh	r2, [r3, #24]
 800231e:	f107 0714 	add.w	r7, r7, #20
 8002322:	46bd      	mov	sp, r7
 8002324:	bc80      	pop	{r7}
 8002326:	4770      	bx	lr

08002328 <TIM_OC3PreloadConfig>:
 8002328:	b480      	push	{r7}
 800232a:	b085      	sub	sp, #20
 800232c:	af00      	add	r7, sp, #0
 800232e:	6078      	str	r0, [r7, #4]
 8002330:	460b      	mov	r3, r1
 8002332:	807b      	strh	r3, [r7, #2]
 8002334:	f04f 0300 	mov.w	r3, #0
 8002338:	81fb      	strh	r3, [r7, #14]
 800233a:	687b      	ldr	r3, [r7, #4]
 800233c:	8b9b      	ldrh	r3, [r3, #28]
 800233e:	81fb      	strh	r3, [r7, #14]
 8002340:	89fb      	ldrh	r3, [r7, #14]
 8002342:	f023 0308 	bic.w	r3, r3, #8
 8002346:	81fb      	strh	r3, [r7, #14]
 8002348:	89fa      	ldrh	r2, [r7, #14]
 800234a:	887b      	ldrh	r3, [r7, #2]
 800234c:	ea42 0303 	orr.w	r3, r2, r3
 8002350:	81fb      	strh	r3, [r7, #14]
 8002352:	687b      	ldr	r3, [r7, #4]
 8002354:	89fa      	ldrh	r2, [r7, #14]
 8002356:	839a      	strh	r2, [r3, #28]
 8002358:	f107 0714 	add.w	r7, r7, #20
 800235c:	46bd      	mov	sp, r7
 800235e:	bc80      	pop	{r7}
 8002360:	4770      	bx	lr
 8002362:	bf00      	nop

08002364 <TIM_OC4PreloadConfig>:
 8002364:	b480      	push	{r7}
 8002366:	b085      	sub	sp, #20
 8002368:	af00      	add	r7, sp, #0
 800236a:	6078      	str	r0, [r7, #4]
 800236c:	460b      	mov	r3, r1
 800236e:	807b      	strh	r3, [r7, #2]
 8002370:	f04f 0300 	mov.w	r3, #0
 8002374:	81fb      	strh	r3, [r7, #14]
 8002376:	687b      	ldr	r3, [r7, #4]
 8002378:	8b9b      	ldrh	r3, [r3, #28]
 800237a:	81fb      	strh	r3, [r7, #14]
 800237c:	89fb      	ldrh	r3, [r7, #14]
 800237e:	f423 6300 	bic.w	r3, r3, #2048	; 0x800
 8002382:	81fb      	strh	r3, [r7, #14]
 8002384:	887b      	ldrh	r3, [r7, #2]
 8002386:	ea4f 2303 	mov.w	r3, r3, lsl #8
 800238a:	b29a      	uxth	r2, r3
 800238c:	89fb      	ldrh	r3, [r7, #14]
 800238e:	ea42 0303 	orr.w	r3, r2, r3
 8002392:	81fb      	strh	r3, [r7, #14]
 8002394:	687b      	ldr	r3, [r7, #4]
 8002396:	89fa      	ldrh	r2, [r7, #14]
 8002398:	839a      	strh	r2, [r3, #28]
 800239a:	f107 0714 	add.w	r7, r7, #20
 800239e:	46bd      	mov	sp, r7
 80023a0:	bc80      	pop	{r7}
 80023a2:	4770      	bx	lr

080023a4 <TIM_CCxCmd>:
 80023a4:	b480      	push	{r7}
 80023a6:	b085      	sub	sp, #20
 80023a8:	af00      	add	r7, sp, #0
 80023aa:	6078      	str	r0, [r7, #4]
 80023ac:	4613      	mov	r3, r2
 80023ae:	460a      	mov	r2, r1
 80023b0:	807a      	strh	r2, [r7, #2]
 80023b2:	803b      	strh	r3, [r7, #0]
 80023b4:	f04f 0300 	mov.w	r3, #0
 80023b8:	81fb      	strh	r3, [r7, #14]
 80023ba:	887b      	ldrh	r3, [r7, #2]
 80023bc:	f04f 0201 	mov.w	r2, #1
 80023c0:	fa02 f303 	lsl.w	r3, r2, r3
 80023c4:	81fb      	strh	r3, [r7, #14]
 80023c6:	687b      	ldr	r3, [r7, #4]
 80023c8:	8c1b      	ldrh	r3, [r3, #32]
 80023ca:	b29a      	uxth	r2, r3
 80023cc:	89fb      	ldrh	r3, [r7, #14]
 80023ce:	ea6f 0303 	mvn.w	r3, r3
 80023d2:	b29b      	uxth	r3, r3
 80023d4:	ea02 0303 	and.w	r3, r2, r3
 80023d8:	b29a      	uxth	r2, r3
 80023da:	687b      	ldr	r3, [r7, #4]
 80023dc:	841a      	strh	r2, [r3, #32]
 80023de:	687b      	ldr	r3, [r7, #4]
 80023e0:	8c1b      	ldrh	r3, [r3, #32]
 80023e2:	b29a      	uxth	r2, r3
 80023e4:	8839      	ldrh	r1, [r7, #0]
 80023e6:	887b      	ldrh	r3, [r7, #2]
 80023e8:	fa01 f303 	lsl.w	r3, r1, r3
 80023ec:	b29b      	uxth	r3, r3
 80023ee:	ea42 0303 	orr.w	r3, r2, r3
 80023f2:	b29a      	uxth	r2, r3
 80023f4:	687b      	ldr	r3, [r7, #4]
 80023f6:	841a      	strh	r2, [r3, #32]
 80023f8:	f107 0714 	add.w	r7, r7, #20
 80023fc:	46bd      	mov	sp, r7
 80023fe:	bc80      	pop	{r7}
 8002400:	4770      	bx	lr
 8002402:	bf00      	nop

08002404 <pvPortMalloc>:
 8002404:	b580      	push	{r7, lr}
 8002406:	b08a      	sub	sp, #40	; 0x28
 8002408:	af00      	add	r7, sp, #0
 800240a:	6078      	str	r0, [r7, #4]
 800240c:	f04f 0300 	mov.w	r3, #0
 8002410:	61fb      	str	r3, [r7, #28]
 8002412:	f001 f821 	bl	8003458 <vTaskSuspendAll>
 8002416:	4b4c      	ldr	r3, [pc, #304]	; (8002548 <pvPortMalloc+0x144>)
 8002418:	681b      	ldr	r3, [r3, #0]
 800241a:	2b00      	cmp	r3, #0
 800241c:	d11b      	bne.n	8002456 <pvPortMalloc+0x52>
 800241e:	4a4b      	ldr	r2, [pc, #300]	; (800254c <pvPortMalloc+0x148>)
 8002420:	4b4b      	ldr	r3, [pc, #300]	; (8002550 <pvPortMalloc+0x14c>)
 8002422:	601a      	str	r2, [r3, #0]
 8002424:	4b4a      	ldr	r3, [pc, #296]	; (8002550 <pvPortMalloc+0x14c>)
 8002426:	f04f 0200 	mov.w	r2, #0
 800242a:	605a      	str	r2, [r3, #4]
 800242c:	4b49      	ldr	r3, [pc, #292]	; (8002554 <pvPortMalloc+0x150>)
 800242e:	f44f 4248 	mov.w	r2, #51200	; 0xc800
 8002432:	605a      	str	r2, [r3, #4]
 8002434:	4b47      	ldr	r3, [pc, #284]	; (8002554 <pvPortMalloc+0x150>)
 8002436:	f04f 0200 	mov.w	r2, #0
 800243a:	601a      	str	r2, [r3, #0]
 800243c:	4b43      	ldr	r3, [pc, #268]	; (800254c <pvPortMalloc+0x148>)
 800243e:	617b      	str	r3, [r7, #20]
 8002440:	697b      	ldr	r3, [r7, #20]
 8002442:	f44f 4248 	mov.w	r2, #51200	; 0xc800
 8002446:	605a      	str	r2, [r3, #4]
 8002448:	697b      	ldr	r3, [r7, #20]
 800244a:	4a42      	ldr	r2, [pc, #264]	; (8002554 <pvPortMalloc+0x150>)
 800244c:	601a      	str	r2, [r3, #0]
 800244e:	4b3e      	ldr	r3, [pc, #248]	; (8002548 <pvPortMalloc+0x144>)
 8002450:	f04f 0201 	mov.w	r2, #1
 8002454:	601a      	str	r2, [r3, #0]
 8002456:	687b      	ldr	r3, [r7, #4]
 8002458:	2b00      	cmp	r3, #0
 800245a:	d00f      	beq.n	800247c <pvPortMalloc+0x78>
 800245c:	4b3e      	ldr	r3, [pc, #248]	; (8002558 <pvPortMalloc+0x154>)
 800245e:	881b      	ldrh	r3, [r3, #0]
 8002460:	687a      	ldr	r2, [r7, #4]
 8002462:	18d3      	adds	r3, r2, r3
 8002464:	607b      	str	r3, [r7, #4]
 8002466:	687b      	ldr	r3, [r7, #4]
 8002468:	f003 0307 	and.w	r3, r3, #7
 800246c:	2b00      	cmp	r3, #0
 800246e:	d005      	beq.n	800247c <pvPortMalloc+0x78>
 8002470:	687b      	ldr	r3, [r7, #4]
 8002472:	f023 0307 	bic.w	r3, r3, #7
 8002476:	f103 0308 	add.w	r3, r3, #8
 800247a:	607b      	str	r3, [r7, #4]
 800247c:	687b      	ldr	r3, [r7, #4]
 800247e:	2b00      	cmp	r3, #0
 8002480:	d05a      	beq.n	8002538 <pvPortMalloc+0x134>
 8002482:	687a      	ldr	r2, [r7, #4]
 8002484:	f24c 73ff 	movw	r3, #51199	; 0xc7ff
 8002488:	429a      	cmp	r2, r3
 800248a:	d855      	bhi.n	8002538 <pvPortMalloc+0x134>
 800248c:	4b30      	ldr	r3, [pc, #192]	; (8002550 <pvPortMalloc+0x14c>)
 800248e:	623b      	str	r3, [r7, #32]
 8002490:	4b2f      	ldr	r3, [pc, #188]	; (8002550 <pvPortMalloc+0x14c>)
 8002492:	681b      	ldr	r3, [r3, #0]
 8002494:	627b      	str	r3, [r7, #36]	; 0x24
 8002496:	e004      	b.n	80024a2 <pvPortMalloc+0x9e>
 8002498:	6a7b      	ldr	r3, [r7, #36]	; 0x24
 800249a:	623b      	str	r3, [r7, #32]
 800249c:	6a7b      	ldr	r3, [r7, #36]	; 0x24
 800249e:	681b      	ldr	r3, [r3, #0]
 80024a0:	627b      	str	r3, [r7, #36]	; 0x24
 80024a2:	6a7b      	ldr	r3, [r7, #36]	; 0x24
 80024a4:	685a      	ldr	r2, [r3, #4]
 80024a6:	687b      	ldr	r3, [r7, #4]
 80024a8:	429a      	cmp	r2, r3
 80024aa:	d203      	bcs.n	80024b4 <pvPortMalloc+0xb0>
 80024ac:	6a7b      	ldr	r3, [r7, #36]	; 0x24
 80024ae:	681b      	ldr	r3, [r3, #0]
 80024b0:	2b00      	cmp	r3, #0
 80024b2:	d1f1      	bne.n	8002498 <pvPortMalloc+0x94>
 80024b4:	6a7a      	ldr	r2, [r7, #36]	; 0x24
 80024b6:	4b27      	ldr	r3, [pc, #156]	; (8002554 <pvPortMalloc+0x150>)
 80024b8:	429a      	cmp	r2, r3
 80024ba:	d03d      	beq.n	8002538 <pvPortMalloc+0x134>
 80024bc:	6a3b      	ldr	r3, [r7, #32]
 80024be:	681a      	ldr	r2, [r3, #0]
 80024c0:	4b25      	ldr	r3, [pc, #148]	; (8002558 <pvPortMalloc+0x154>)
 80024c2:	881b      	ldrh	r3, [r3, #0]
 80024c4:	18d3      	adds	r3, r2, r3
 80024c6:	61fb      	str	r3, [r7, #28]
 80024c8:	6a7b      	ldr	r3, [r7, #36]	; 0x24
 80024ca:	681a      	ldr	r2, [r3, #0]
 80024cc:	6a3b      	ldr	r3, [r7, #32]
 80024ce:	601a      	str	r2, [r3, #0]
 80024d0:	6a7b      	ldr	r3, [r7, #36]	; 0x24
 80024d2:	685a      	ldr	r2, [r3, #4]
 80024d4:	687b      	ldr	r3, [r7, #4]
 80024d6:	1ad2      	subs	r2, r2, r3
 80024d8:	4b1f      	ldr	r3, [pc, #124]	; (8002558 <pvPortMalloc+0x154>)
 80024da:	881b      	ldrh	r3, [r3, #0]
 80024dc:	ea4f 0343 	mov.w	r3, r3, lsl #1
 80024e0:	429a      	cmp	r2, r3
 80024e2:	d922      	bls.n	800252a <pvPortMalloc+0x126>
 80024e4:	6a7a      	ldr	r2, [r7, #36]	; 0x24
 80024e6:	687b      	ldr	r3, [r7, #4]
 80024e8:	18d3      	adds	r3, r2, r3
 80024ea:	613b      	str	r3, [r7, #16]
 80024ec:	6a7b      	ldr	r3, [r7, #36]	; 0x24
 80024ee:	685a      	ldr	r2, [r3, #4]
 80024f0:	687b      	ldr	r3, [r7, #4]
 80024f2:	1ad2      	subs	r2, r2, r3
 80024f4:	693b      	ldr	r3, [r7, #16]
 80024f6:	605a      	str	r2, [r3, #4]
 80024f8:	6a7b      	ldr	r3, [r7, #36]	; 0x24
 80024fa:	687a      	ldr	r2, [r7, #4]
 80024fc:	605a      	str	r2, [r3, #4]
 80024fe:	693b      	ldr	r3, [r7, #16]
 8002500:	685b      	ldr	r3, [r3, #4]
 8002502:	60fb      	str	r3, [r7, #12]
 8002504:	4b12      	ldr	r3, [pc, #72]	; (8002550 <pvPortMalloc+0x14c>)
 8002506:	61bb      	str	r3, [r7, #24]
 8002508:	e002      	b.n	8002510 <pvPortMalloc+0x10c>
 800250a:	69bb      	ldr	r3, [r7, #24]
 800250c:	681b      	ldr	r3, [r3, #0]
 800250e:	61bb      	str	r3, [r7, #24]
 8002510:	69bb      	ldr	r3, [r7, #24]
 8002512:	681b      	ldr	r3, [r3, #0]
 8002514:	685a      	ldr	r2, [r3, #4]
 8002516:	68fb      	ldr	r3, [r7, #12]
 8002518:	429a      	cmp	r2, r3
 800251a:	d3f6      	bcc.n	800250a <pvPortMalloc+0x106>
 800251c:	69bb      	ldr	r3, [r7, #24]
 800251e:	681a      	ldr	r2, [r3, #0]
 8002520:	693b      	ldr	r3, [r7, #16]
 8002522:	601a      	str	r2, [r3, #0]
 8002524:	69bb      	ldr	r3, [r7, #24]
 8002526:	693a      	ldr	r2, [r7, #16]
 8002528:	601a      	str	r2, [r3, #0]
 800252a:	4b0c      	ldr	r3, [pc, #48]	; (800255c <pvPortMalloc+0x158>)
 800252c:	681a      	ldr	r2, [r3, #0]
 800252e:	6a7b      	ldr	r3, [r7, #36]	; 0x24
 8002530:	685b      	ldr	r3, [r3, #4]
 8002532:	1ad2      	subs	r2, r2, r3
 8002534:	4b09      	ldr	r3, [pc, #36]	; (800255c <pvPortMalloc+0x158>)
 8002536:	601a      	str	r2, [r3, #0]
 8002538:	f000 ff9c 	bl	8003474 <xTaskResumeAll>
 800253c:	69fb      	ldr	r3, [r7, #28]
 800253e:	4618      	mov	r0, r3
 8002540:	f107 0728 	add.w	r7, r7, #40	; 0x28
 8002544:	46bd      	mov	sp, r7
 8002546:	bd80      	pop	{r7, pc}
 8002548:	2000c848 	.word	0x2000c848
 800254c:	20000038 	.word	0x20000038
 8002550:	2000c838 	.word	0x2000c838
 8002554:	2000c840 	.word	0x2000c840
 8002558:	080043a0 	.word	0x080043a0
 800255c:	2000001c 	.word	0x2000001c

08002560 <vPortFree>:
 8002560:	b580      	push	{r7, lr}
 8002562:	b086      	sub	sp, #24
 8002564:	af00      	add	r7, sp, #0
 8002566:	6078      	str	r0, [r7, #4]
 8002568:	687b      	ldr	r3, [r7, #4]
 800256a:	613b      	str	r3, [r7, #16]
 800256c:	687b      	ldr	r3, [r7, #4]
 800256e:	2b00      	cmp	r3, #0
 8002570:	d029      	beq.n	80025c6 <vPortFree+0x66>
 8002572:	4b17      	ldr	r3, [pc, #92]	; (80025d0 <vPortFree+0x70>)
 8002574:	881b      	ldrh	r3, [r3, #0]
 8002576:	f1c3 0300 	rsb	r3, r3, #0
 800257a:	693a      	ldr	r2, [r7, #16]
 800257c:	18d3      	adds	r3, r2, r3
 800257e:	613b      	str	r3, [r7, #16]
 8002580:	693b      	ldr	r3, [r7, #16]
 8002582:	60fb      	str	r3, [r7, #12]
 8002584:	f000 ff68 	bl	8003458 <vTaskSuspendAll>
 8002588:	68fb      	ldr	r3, [r7, #12]
 800258a:	685b      	ldr	r3, [r3, #4]
 800258c:	60bb      	str	r3, [r7, #8]
 800258e:	4b11      	ldr	r3, [pc, #68]	; (80025d4 <vPortFree+0x74>)
 8002590:	617b      	str	r3, [r7, #20]
 8002592:	e002      	b.n	800259a <vPortFree+0x3a>
 8002594:	697b      	ldr	r3, [r7, #20]
 8002596:	681b      	ldr	r3, [r3, #0]
 8002598:	617b      	str	r3, [r7, #20]
 800259a:	697b      	ldr	r3, [r7, #20]
 800259c:	681b      	ldr	r3, [r3, #0]
 800259e:	685a      	ldr	r2, [r3, #4]
 80025a0:	68bb      	ldr	r3, [r7, #8]
 80025a2:	429a      	cmp	r2, r3
 80025a4:	d3f6      	bcc.n	8002594 <vPortFree+0x34>
 80025a6:	697b      	ldr	r3, [r7, #20]
 80025a8:	681a      	ldr	r2, [r3, #0]
 80025aa:	68fb      	ldr	r3, [r7, #12]
 80025ac:	601a      	str	r2, [r3, #0]
 80025ae:	697b      	ldr	r3, [r7, #20]
 80025b0:	68fa      	ldr	r2, [r7, #12]
 80025b2:	601a      	str	r2, [r3, #0]
 80025b4:	68fb      	ldr	r3, [r7, #12]
 80025b6:	685a      	ldr	r2, [r3, #4]
 80025b8:	4b07      	ldr	r3, [pc, #28]	; (80025d8 <vPortFree+0x78>)
 80025ba:	681b      	ldr	r3, [r3, #0]
 80025bc:	18d2      	adds	r2, r2, r3
 80025be:	4b06      	ldr	r3, [pc, #24]	; (80025d8 <vPortFree+0x78>)
 80025c0:	601a      	str	r2, [r3, #0]
 80025c2:	f000 ff57 	bl	8003474 <xTaskResumeAll>
 80025c6:	f107 0718 	add.w	r7, r7, #24
 80025ca:	46bd      	mov	sp, r7
 80025cc:	bd80      	pop	{r7, pc}
 80025ce:	bf00      	nop
 80025d0:	080043a0 	.word	0x080043a0
 80025d4:	2000c838 	.word	0x2000c838
 80025d8:	2000001c 	.word	0x2000001c

080025dc <xPortGetFreeHeapSize>:
 80025dc:	b480      	push	{r7}
 80025de:	af00      	add	r7, sp, #0
 80025e0:	4b02      	ldr	r3, [pc, #8]	; (80025ec <xPortGetFreeHeapSize+0x10>)
 80025e2:	681b      	ldr	r3, [r3, #0]
 80025e4:	4618      	mov	r0, r3
 80025e6:	46bd      	mov	sp, r7
 80025e8:	bc80      	pop	{r7}
 80025ea:	4770      	bx	lr
 80025ec:	2000001c 	.word	0x2000001c

080025f0 <pxPortInitialiseStack>:
 80025f0:	b480      	push	{r7}
 80025f2:	b085      	sub	sp, #20
 80025f4:	af00      	add	r7, sp, #0
 80025f6:	60f8      	str	r0, [r7, #12]
 80025f8:	60b9      	str	r1, [r7, #8]
 80025fa:	607a      	str	r2, [r7, #4]
 80025fc:	68fb      	ldr	r3, [r7, #12]
 80025fe:	f1a3 0304 	sub.w	r3, r3, #4
 8002602:	60fb      	str	r3, [r7, #12]
 8002604:	68fb      	ldr	r3, [r7, #12]
 8002606:	f04f 7280 	mov.w	r2, #16777216	; 0x1000000
 800260a:	601a      	str	r2, [r3, #0]
 800260c:	68fb      	ldr	r3, [r7, #12]
 800260e:	f1a3 0304 	sub.w	r3, r3, #4
 8002612:	60fb      	str	r3, [r7, #12]
 8002614:	68ba      	ldr	r2, [r7, #8]
 8002616:	68fb      	ldr	r3, [r7, #12]
 8002618:	601a      	str	r2, [r3, #0]
 800261a:	68fb      	ldr	r3, [r7, #12]
 800261c:	f1a3 0304 	sub.w	r3, r3, #4
 8002620:	60fb      	str	r3, [r7, #12]
 8002622:	68fb      	ldr	r3, [r7, #12]
 8002624:	f04f 0200 	mov.w	r2, #0
 8002628:	601a      	str	r2, [r3, #0]
 800262a:	68fb      	ldr	r3, [r7, #12]
 800262c:	f1a3 0314 	sub.w	r3, r3, #20
 8002630:	60fb      	str	r3, [r7, #12]
 8002632:	687a      	ldr	r2, [r7, #4]
 8002634:	68fb      	ldr	r3, [r7, #12]
 8002636:	601a      	str	r2, [r3, #0]
 8002638:	68fb      	ldr	r3, [r7, #12]
 800263a:	f1a3 0320 	sub.w	r3, r3, #32
 800263e:	60fb      	str	r3, [r7, #12]
 8002640:	68fb      	ldr	r3, [r7, #12]
 8002642:	4618      	mov	r0, r3
 8002644:	f107 0714 	add.w	r7, r7, #20
 8002648:	46bd      	mov	sp, r7
 800264a:	bc80      	pop	{r7}
 800264c:	4770      	bx	lr
 800264e:	bf00      	nop

08002650 <SVC_Handler>:
 8002650:	4b06      	ldr	r3, [pc, #24]	; (800266c <pxCurrentTCBConst2>)
 8002652:	6819      	ldr	r1, [r3, #0]
 8002654:	6808      	ldr	r0, [r1, #0]
 8002656:	e8b0 0ff0 	ldmia.w	r0!, {r4, r5, r6, r7, r8, r9, sl, fp}
 800265a:	f380 8809 	msr	PSP, r0
 800265e:	f04f 0000 	mov.w	r0, #0
 8002662:	f380 8811 	msr	BASEPRI, r0
 8002666:	f04e 0e0d 	orr.w	lr, lr, #13
 800266a:	4770      	bx	lr

0800266c <pxCurrentTCBConst2>:
 800266c:	2000c84c 	.word	0x2000c84c

08002670 <vPortStartFirstTask>:
 8002670:	4803      	ldr	r0, [pc, #12]	; (8002680 <vPortStartFirstTask+0x10>)
 8002672:	6800      	ldr	r0, [r0, #0]
 8002674:	6800      	ldr	r0, [r0, #0]
 8002676:	f380 8808 	msr	MSP, r0
 800267a:	b662      	cpsie	i
 800267c:	df00      	svc	0
 800267e:	bf00      	nop
 8002680:	e000ed08 	.word	0xe000ed08

08002684 <xPortStartScheduler>:
 8002684:	b580      	push	{r7, lr}
 8002686:	af00      	add	r7, sp, #0
 8002688:	4b0b      	ldr	r3, [pc, #44]	; (80026b8 <xPortStartScheduler+0x34>)
 800268a:	4a0b      	ldr	r2, [pc, #44]	; (80026b8 <xPortStartScheduler+0x34>)
 800268c:	6812      	ldr	r2, [r2, #0]
 800268e:	f442 0270 	orr.w	r2, r2, #15728640	; 0xf00000
 8002692:	601a      	str	r2, [r3, #0]
 8002694:	4b08      	ldr	r3, [pc, #32]	; (80026b8 <xPortStartScheduler+0x34>)
 8002696:	4a08      	ldr	r2, [pc, #32]	; (80026b8 <xPortStartScheduler+0x34>)
 8002698:	6812      	ldr	r2, [r2, #0]
 800269a:	f042 4270 	orr.w	r2, r2, #4026531840	; 0xf0000000
 800269e:	601a      	str	r2, [r3, #0]
 80026a0:	f000 f87a 	bl	8002798 <prvSetupTimerInterrupt>
 80026a4:	4b05      	ldr	r3, [pc, #20]	; (80026bc <xPortStartScheduler+0x38>)
 80026a6:	f04f 0200 	mov.w	r2, #0
 80026aa:	601a      	str	r2, [r3, #0]
 80026ac:	f7ff ffe0 	bl	8002670 <vPortStartFirstTask>
 80026b0:	f04f 0300 	mov.w	r3, #0
 80026b4:	4618      	mov	r0, r3
 80026b6:	bd80      	pop	{r7, pc}
 80026b8:	e000ed20 	.word	0xe000ed20
 80026bc:	20000020 	.word	0x20000020

080026c0 <vPortYieldFromISR>:
 80026c0:	b480      	push	{r7}
 80026c2:	af00      	add	r7, sp, #0
 80026c4:	4b03      	ldr	r3, [pc, #12]	; (80026d4 <vPortYieldFromISR+0x14>)
 80026c6:	f04f 5280 	mov.w	r2, #268435456	; 0x10000000
 80026ca:	601a      	str	r2, [r3, #0]
 80026cc:	46bd      	mov	sp, r7
 80026ce:	bc80      	pop	{r7}
 80026d0:	4770      	bx	lr
 80026d2:	bf00      	nop
 80026d4:	e000ed04 	.word	0xe000ed04

080026d8 <vPortEnterCritical>:
 80026d8:	b480      	push	{r7}
 80026da:	af00      	add	r7, sp, #0
 80026dc:	f04f 0050 	mov.w	r0, #80	; 0x50
 80026e0:	f380 8811 	msr	BASEPRI, r0
 80026e4:	4b04      	ldr	r3, [pc, #16]	; (80026f8 <vPortEnterCritical+0x20>)
 80026e6:	681b      	ldr	r3, [r3, #0]
 80026e8:	f103 0201 	add.w	r2, r3, #1
 80026ec:	4b02      	ldr	r3, [pc, #8]	; (80026f8 <vPortEnterCritical+0x20>)
 80026ee:	601a      	str	r2, [r3, #0]
 80026f0:	46bd      	mov	sp, r7
 80026f2:	bc80      	pop	{r7}
 80026f4:	4770      	bx	lr
 80026f6:	bf00      	nop
 80026f8:	20000020 	.word	0x20000020

080026fc <vPortExitCritical>:
 80026fc:	b480      	push	{r7}
 80026fe:	af00      	add	r7, sp, #0
 8002700:	4b08      	ldr	r3, [pc, #32]	; (8002724 <vPortExitCritical+0x28>)
 8002702:	681b      	ldr	r3, [r3, #0]
 8002704:	f103 32ff 	add.w	r2, r3, #4294967295
 8002708:	4b06      	ldr	r3, [pc, #24]	; (8002724 <vPortExitCritical+0x28>)
 800270a:	601a      	str	r2, [r3, #0]
 800270c:	4b05      	ldr	r3, [pc, #20]	; (8002724 <vPortExitCritical+0x28>)
 800270e:	681b      	ldr	r3, [r3, #0]
 8002710:	2b00      	cmp	r3, #0
 8002712:	d103      	bne.n	800271c <vPortExitCritical+0x20>
 8002714:	f04f 0000 	mov.w	r0, #0
 8002718:	f380 8811 	msr	BASEPRI, r0
 800271c:	46bd      	mov	sp, r7
 800271e:	bc80      	pop	{r7}
 8002720:	4770      	bx	lr
 8002722:	bf00      	nop
 8002724:	20000020 	.word	0x20000020

08002728 <PendSV_Handler>:
 8002728:	f3ef 8009 	mrs	r0, PSP
 800272c:	4b0c      	ldr	r3, [pc, #48]	; (8002760 <pxCurrentTCBConst>)
 800272e:	681a      	ldr	r2, [r3, #0]
 8002730:	e920 0ff0 	stmdb	r0!, {r4, r5, r6, r7, r8, r9, sl, fp}
 8002734:	6010      	str	r0, [r2, #0]
 8002736:	e92d 4008 	stmdb	sp!, {r3, lr}
 800273a:	f04f 0050 	mov.w	r0, #80	; 0x50
 800273e:	f380 8811 	msr	BASEPRI, r0
 8002742:	f000 ffe5 	bl	8003710 <vTaskSwitchContext>
 8002746:	f04f 0000 	mov.w	r0, #0
 800274a:	f380 8811 	msr	BASEPRI, r0
 800274e:	e8bd 4008 	ldmia.w	sp!, {r3, lr}
 8002752:	6819      	ldr	r1, [r3, #0]
 8002754:	6808      	ldr	r0, [r1, #0]
 8002756:	e8b0 0ff0 	ldmia.w	r0!, {r4, r5, r6, r7, r8, r9, sl, fp}
 800275a:	f380 8809 	msr	PSP, r0
 800275e:	4770      	bx	lr

08002760 <pxCurrentTCBConst>:
 8002760:	2000c84c 	.word	0x2000c84c

08002764 <SysTick_Handler>:
 8002764:	b580      	push	{r7, lr}
 8002766:	b082      	sub	sp, #8
 8002768:	af00      	add	r7, sp, #0
 800276a:	4b0a      	ldr	r3, [pc, #40]	; (8002794 <SysTick_Handler+0x30>)
 800276c:	f04f 5280 	mov.w	r2, #268435456	; 0x10000000
 8002770:	601a      	str	r2, [r3, #0]
 8002772:	f04f 0300 	mov.w	r3, #0
 8002776:	607b      	str	r3, [r7, #4]
 8002778:	f04f 0050 	mov.w	r0, #80	; 0x50
 800277c:	f380 8811 	msr	BASEPRI, r0
 8002780:	f000 ff1c 	bl	80035bc <vTaskIncrementTick>
 8002784:	f04f 0000 	mov.w	r0, #0
 8002788:	f380 8811 	msr	BASEPRI, r0
 800278c:	f107 0708 	add.w	r7, r7, #8
 8002790:	46bd      	mov	sp, r7
 8002792:	bd80      	pop	{r7, pc}
 8002794:	e000ed04 	.word	0xe000ed04

08002798 <prvSetupTimerInterrupt>:
 8002798:	b480      	push	{r7}
 800279a:	af00      	add	r7, sp, #0
 800279c:	4b05      	ldr	r3, [pc, #20]	; (80027b4 <prvSetupTimerInterrupt+0x1c>)
 800279e:	f643 627f 	movw	r2, #15999	; 0x3e7f
 80027a2:	601a      	str	r2, [r3, #0]
 80027a4:	4b04      	ldr	r3, [pc, #16]	; (80027b8 <prvSetupTimerInterrupt+0x20>)
 80027a6:	f04f 0207 	mov.w	r2, #7
 80027aa:	601a      	str	r2, [r3, #0]
 80027ac:	46bd      	mov	sp, r7
 80027ae:	bc80      	pop	{r7}
 80027b0:	4770      	bx	lr
 80027b2:	bf00      	nop
 80027b4:	e000e014 	.word	0xe000e014
 80027b8:	e000e010 	.word	0xe000e010

080027bc <vListInitialise>:
 80027bc:	b480      	push	{r7}
 80027be:	b083      	sub	sp, #12
 80027c0:	af00      	add	r7, sp, #0
 80027c2:	6078      	str	r0, [r7, #4]
 80027c4:	687b      	ldr	r3, [r7, #4]
 80027c6:	f103 0308 	add.w	r3, r3, #8
 80027ca:	461a      	mov	r2, r3
 80027cc:	687b      	ldr	r3, [r7, #4]
 80027ce:	605a      	str	r2, [r3, #4]
 80027d0:	687b      	ldr	r3, [r7, #4]
 80027d2:	f04f 32ff 	mov.w	r2, #4294967295
 80027d6:	609a      	str	r2, [r3, #8]
 80027d8:	687b      	ldr	r3, [r7, #4]
 80027da:	f103 0308 	add.w	r3, r3, #8
 80027de:	461a      	mov	r2, r3
 80027e0:	687b      	ldr	r3, [r7, #4]
 80027e2:	60da      	str	r2, [r3, #12]
 80027e4:	687b      	ldr	r3, [r7, #4]
 80027e6:	f103 0308 	add.w	r3, r3, #8
 80027ea:	461a      	mov	r2, r3
 80027ec:	687b      	ldr	r3, [r7, #4]
 80027ee:	611a      	str	r2, [r3, #16]
 80027f0:	687b      	ldr	r3, [r7, #4]
 80027f2:	f04f 0200 	mov.w	r2, #0
 80027f6:	601a      	str	r2, [r3, #0]
 80027f8:	f107 070c 	add.w	r7, r7, #12
 80027fc:	46bd      	mov	sp, r7
 80027fe:	bc80      	pop	{r7}
 8002800:	4770      	bx	lr
 8002802:	bf00      	nop

08002804 <vListInitialiseItem>:
 8002804:	b480      	push	{r7}
 8002806:	b083      	sub	sp, #12
 8002808:	af00      	add	r7, sp, #0
 800280a:	6078      	str	r0, [r7, #4]
 800280c:	687b      	ldr	r3, [r7, #4]
 800280e:	f04f 0200 	mov.w	r2, #0
 8002812:	611a      	str	r2, [r3, #16]
 8002814:	f107 070c 	add.w	r7, r7, #12
 8002818:	46bd      	mov	sp, r7
 800281a:	bc80      	pop	{r7}
 800281c:	4770      	bx	lr
 800281e:	bf00      	nop

08002820 <vListInsertEnd>:
 8002820:	b480      	push	{r7}
 8002822:	b085      	sub	sp, #20
 8002824:	af00      	add	r7, sp, #0
 8002826:	6078      	str	r0, [r7, #4]
 8002828:	6039      	str	r1, [r7, #0]
 800282a:	687b      	ldr	r3, [r7, #4]
 800282c:	685b      	ldr	r3, [r3, #4]
 800282e:	60fb      	str	r3, [r7, #12]
 8002830:	68fb      	ldr	r3, [r7, #12]
 8002832:	685a      	ldr	r2, [r3, #4]
 8002834:	683b      	ldr	r3, [r7, #0]
 8002836:	605a      	str	r2, [r3, #4]
 8002838:	687b      	ldr	r3, [r7, #4]
 800283a:	685a      	ldr	r2, [r3, #4]
 800283c:	683b      	ldr	r3, [r7, #0]
 800283e:	609a      	str	r2, [r3, #8]
 8002840:	68fb      	ldr	r3, [r7, #12]
 8002842:	685b      	ldr	r3, [r3, #4]
 8002844:	683a      	ldr	r2, [r7, #0]
 8002846:	609a      	str	r2, [r3, #8]
 8002848:	683a      	ldr	r2, [r7, #0]
 800284a:	68fb      	ldr	r3, [r7, #12]
 800284c:	605a      	str	r2, [r3, #4]
 800284e:	683a      	ldr	r2, [r7, #0]
 8002850:	687b      	ldr	r3, [r7, #4]
 8002852:	605a      	str	r2, [r3, #4]
 8002854:	683b      	ldr	r3, [r7, #0]
 8002856:	687a      	ldr	r2, [r7, #4]
 8002858:	611a      	str	r2, [r3, #16]
 800285a:	687b      	ldr	r3, [r7, #4]
 800285c:	681b      	ldr	r3, [r3, #0]
 800285e:	f103 0201 	add.w	r2, r3, #1
 8002862:	687b      	ldr	r3, [r7, #4]
 8002864:	601a      	str	r2, [r3, #0]
 8002866:	f107 0714 	add.w	r7, r7, #20
 800286a:	46bd      	mov	sp, r7
 800286c:	bc80      	pop	{r7}
 800286e:	4770      	bx	lr

08002870 <vListInsert>:
 8002870:	b480      	push	{r7}
 8002872:	b085      	sub	sp, #20
 8002874:	af00      	add	r7, sp, #0
 8002876:	6078      	str	r0, [r7, #4]
 8002878:	6039      	str	r1, [r7, #0]
 800287a:	683b      	ldr	r3, [r7, #0]
 800287c:	681b      	ldr	r3, [r3, #0]
 800287e:	60bb      	str	r3, [r7, #8]
 8002880:	68bb      	ldr	r3, [r7, #8]
 8002882:	f1b3 3fff 	cmp.w	r3, #4294967295
 8002886:	d103      	bne.n	8002890 <vListInsert+0x20>
 8002888:	687b      	ldr	r3, [r7, #4]
 800288a:	691b      	ldr	r3, [r3, #16]
 800288c:	60fb      	str	r3, [r7, #12]
 800288e:	e00d      	b.n	80028ac <vListInsert+0x3c>
 8002890:	687b      	ldr	r3, [r7, #4]
 8002892:	f103 0308 	add.w	r3, r3, #8
 8002896:	60fb      	str	r3, [r7, #12]
 8002898:	e002      	b.n	80028a0 <vListInsert+0x30>
 800289a:	68fb      	ldr	r3, [r7, #12]
 800289c:	685b      	ldr	r3, [r3, #4]
 800289e:	60fb      	str	r3, [r7, #12]
 80028a0:	68fb      	ldr	r3, [r7, #12]
 80028a2:	685b      	ldr	r3, [r3, #4]
 80028a4:	681a      	ldr	r2, [r3, #0]
 80028a6:	68bb      	ldr	r3, [r7, #8]
 80028a8:	429a      	cmp	r2, r3
 80028aa:	d9f6      	bls.n	800289a <vListInsert+0x2a>
 80028ac:	68fb      	ldr	r3, [r7, #12]
 80028ae:	685a      	ldr	r2, [r3, #4]
 80028b0:	683b      	ldr	r3, [r7, #0]
 80028b2:	605a      	str	r2, [r3, #4]
 80028b4:	683b      	ldr	r3, [r7, #0]
 80028b6:	685b      	ldr	r3, [r3, #4]
 80028b8:	683a      	ldr	r2, [r7, #0]
 80028ba:	609a      	str	r2, [r3, #8]
 80028bc:	683b      	ldr	r3, [r7, #0]
 80028be:	68fa      	ldr	r2, [r7, #12]
 80028c0:	609a      	str	r2, [r3, #8]
 80028c2:	683a      	ldr	r2, [r7, #0]
 80028c4:	68fb      	ldr	r3, [r7, #12]
 80028c6:	605a      	str	r2, [r3, #4]
 80028c8:	683b      	ldr	r3, [r7, #0]
 80028ca:	687a      	ldr	r2, [r7, #4]
 80028cc:	611a      	str	r2, [r3, #16]
 80028ce:	687b      	ldr	r3, [r7, #4]
 80028d0:	681b      	ldr	r3, [r3, #0]
 80028d2:	f103 0201 	add.w	r2, r3, #1
 80028d6:	687b      	ldr	r3, [r7, #4]
 80028d8:	601a      	str	r2, [r3, #0]
 80028da:	f107 0714 	add.w	r7, r7, #20
 80028de:	46bd      	mov	sp, r7
 80028e0:	bc80      	pop	{r7}
 80028e2:	4770      	bx	lr

080028e4 <vListRemove>:
 80028e4:	b480      	push	{r7}
 80028e6:	b085      	sub	sp, #20
 80028e8:	af00      	add	r7, sp, #0
 80028ea:	6078      	str	r0, [r7, #4]
 80028ec:	687b      	ldr	r3, [r7, #4]
 80028ee:	685b      	ldr	r3, [r3, #4]
 80028f0:	687a      	ldr	r2, [r7, #4]
 80028f2:	6892      	ldr	r2, [r2, #8]
 80028f4:	609a      	str	r2, [r3, #8]
 80028f6:	687b      	ldr	r3, [r7, #4]
 80028f8:	689b      	ldr	r3, [r3, #8]
 80028fa:	687a      	ldr	r2, [r7, #4]
 80028fc:	6852      	ldr	r2, [r2, #4]
 80028fe:	605a      	str	r2, [r3, #4]
 8002900:	687b      	ldr	r3, [r7, #4]
 8002902:	691b      	ldr	r3, [r3, #16]
 8002904:	60fb      	str	r3, [r7, #12]
 8002906:	68fb      	ldr	r3, [r7, #12]
 8002908:	685a      	ldr	r2, [r3, #4]
 800290a:	687b      	ldr	r3, [r7, #4]
 800290c:	429a      	cmp	r2, r3
 800290e:	d103      	bne.n	8002918 <vListRemove+0x34>
 8002910:	687b      	ldr	r3, [r7, #4]
 8002912:	689a      	ldr	r2, [r3, #8]
 8002914:	68fb      	ldr	r3, [r7, #12]
 8002916:	605a      	str	r2, [r3, #4]
 8002918:	687b      	ldr	r3, [r7, #4]
 800291a:	f04f 0200 	mov.w	r2, #0
 800291e:	611a      	str	r2, [r3, #16]
 8002920:	68fb      	ldr	r3, [r7, #12]
 8002922:	681b      	ldr	r3, [r3, #0]
 8002924:	f103 32ff 	add.w	r2, r3, #4294967295
 8002928:	68fb      	ldr	r3, [r7, #12]
 800292a:	601a      	str	r2, [r3, #0]
 800292c:	f107 0714 	add.w	r7, r7, #20
 8002930:	46bd      	mov	sp, r7
 8002932:	bc80      	pop	{r7}
 8002934:	4770      	bx	lr
 8002936:	bf00      	nop

08002938 <xQueueCreate>:
 8002938:	b580      	push	{r7, lr}
 800293a:	b086      	sub	sp, #24
 800293c:	af00      	add	r7, sp, #0
 800293e:	6078      	str	r0, [r7, #4]
 8002940:	6039      	str	r1, [r7, #0]
 8002942:	f04f 0300 	mov.w	r3, #0
 8002946:	617b      	str	r3, [r7, #20]
 8002948:	687b      	ldr	r3, [r7, #4]
 800294a:	2b00      	cmp	r3, #0
 800294c:	d056      	beq.n	80029fc <xQueueCreate+0xc4>
 800294e:	f04f 004c 	mov.w	r0, #76	; 0x4c
 8002952:	f7ff fd57 	bl	8002404 <pvPortMalloc>
 8002956:	4603      	mov	r3, r0
 8002958:	613b      	str	r3, [r7, #16]
 800295a:	693b      	ldr	r3, [r7, #16]
 800295c:	2b00      	cmp	r3, #0
 800295e:	d04d      	beq.n	80029fc <xQueueCreate+0xc4>
 8002960:	687b      	ldr	r3, [r7, #4]
 8002962:	683a      	ldr	r2, [r7, #0]
 8002964:	fb02 f303 	mul.w	r3, r2, r3
 8002968:	f103 0301 	add.w	r3, r3, #1
 800296c:	60fb      	str	r3, [r7, #12]
 800296e:	68f8      	ldr	r0, [r7, #12]
 8002970:	f7ff fd48 	bl	8002404 <pvPortMalloc>
 8002974:	4603      	mov	r3, r0
 8002976:	461a      	mov	r2, r3
 8002978:	693b      	ldr	r3, [r7, #16]
 800297a:	601a      	str	r2, [r3, #0]
 800297c:	693b      	ldr	r3, [r7, #16]
 800297e:	681b      	ldr	r3, [r3, #0]
 8002980:	2b00      	cmp	r3, #0
 8002982:	d038      	beq.n	80029f6 <xQueueCreate+0xbe>
 8002984:	693b      	ldr	r3, [r7, #16]
 8002986:	681a      	ldr	r2, [r3, #0]
 8002988:	687b      	ldr	r3, [r7, #4]
 800298a:	6839      	ldr	r1, [r7, #0]
 800298c:	fb01 f303 	mul.w	r3, r1, r3
 8002990:	18d2      	adds	r2, r2, r3
 8002992:	693b      	ldr	r3, [r7, #16]
 8002994:	605a      	str	r2, [r3, #4]
 8002996:	693b      	ldr	r3, [r7, #16]
 8002998:	f04f 0200 	mov.w	r2, #0
 800299c:	639a      	str	r2, [r3, #56]	; 0x38
 800299e:	693b      	ldr	r3, [r7, #16]
 80029a0:	681a      	ldr	r2, [r3, #0]
 80029a2:	693b      	ldr	r3, [r7, #16]
 80029a4:	609a      	str	r2, [r3, #8]
 80029a6:	693b      	ldr	r3, [r7, #16]
 80029a8:	681a      	ldr	r2, [r3, #0]
 80029aa:	687b      	ldr	r3, [r7, #4]
 80029ac:	f103 33ff 	add.w	r3, r3, #4294967295
 80029b0:	6839      	ldr	r1, [r7, #0]
 80029b2:	fb01 f303 	mul.w	r3, r1, r3
 80029b6:	18d2      	adds	r2, r2, r3
 80029b8:	693b      	ldr	r3, [r7, #16]
 80029ba:	60da      	str	r2, [r3, #12]
 80029bc:	693b      	ldr	r3, [r7, #16]
 80029be:	687a      	ldr	r2, [r7, #4]
 80029c0:	63da      	str	r2, [r3, #60]	; 0x3c
 80029c2:	693b      	ldr	r3, [r7, #16]
 80029c4:	683a      	ldr	r2, [r7, #0]
 80029c6:	641a      	str	r2, [r3, #64]	; 0x40
 80029c8:	693b      	ldr	r3, [r7, #16]
 80029ca:	f04f 32ff 	mov.w	r2, #4294967295
 80029ce:	645a      	str	r2, [r3, #68]	; 0x44
 80029d0:	693b      	ldr	r3, [r7, #16]
 80029d2:	f04f 32ff 	mov.w	r2, #4294967295
 80029d6:	649a      	str	r2, [r3, #72]	; 0x48
 80029d8:	693b      	ldr	r3, [r7, #16]
 80029da:	f103 0310 	add.w	r3, r3, #16
 80029de:	4618      	mov	r0, r3
 80029e0:	f7ff feec 	bl	80027bc <vListInitialise>
 80029e4:	693b      	ldr	r3, [r7, #16]
 80029e6:	f103 0324 	add.w	r3, r3, #36	; 0x24
 80029ea:	4618      	mov	r0, r3
 80029ec:	f7ff fee6 	bl	80027bc <vListInitialise>
 80029f0:	693b      	ldr	r3, [r7, #16]
 80029f2:	617b      	str	r3, [r7, #20]
 80029f4:	e002      	b.n	80029fc <xQueueCreate+0xc4>
 80029f6:	6938      	ldr	r0, [r7, #16]
 80029f8:	f7ff fdb2 	bl	8002560 <vPortFree>
 80029fc:	697b      	ldr	r3, [r7, #20]
 80029fe:	2b00      	cmp	r3, #0
 8002a00:	d104      	bne.n	8002a0c <xQueueCreate+0xd4>
 8002a02:	f04f 0050 	mov.w	r0, #80	; 0x50
 8002a06:	f380 8811 	msr	BASEPRI, r0
 8002a0a:	e7fe      	b.n	8002a0a <xQueueCreate+0xd2>
 8002a0c:	697b      	ldr	r3, [r7, #20]
 8002a0e:	4618      	mov	r0, r3
 8002a10:	f107 0718 	add.w	r7, r7, #24
 8002a14:	46bd      	mov	sp, r7
 8002a16:	bd80      	pop	{r7, pc}

08002a18 <xQueueGenericSend>:
 8002a18:	b580      	push	{r7, lr}
 8002a1a:	b088      	sub	sp, #32
 8002a1c:	af00      	add	r7, sp, #0
 8002a1e:	60f8      	str	r0, [r7, #12]
 8002a20:	60b9      	str	r1, [r7, #8]
 8002a22:	607a      	str	r2, [r7, #4]
 8002a24:	603b      	str	r3, [r7, #0]
 8002a26:	f04f 0300 	mov.w	r3, #0
 8002a2a:	61fb      	str	r3, [r7, #28]
 8002a2c:	68fb      	ldr	r3, [r7, #12]
 8002a2e:	2b00      	cmp	r3, #0
 8002a30:	d104      	bne.n	8002a3c <xQueueGenericSend+0x24>
 8002a32:	f04f 0050 	mov.w	r0, #80	; 0x50
 8002a36:	f380 8811 	msr	BASEPRI, r0
 8002a3a:	e7fe      	b.n	8002a3a <xQueueGenericSend+0x22>
 8002a3c:	68bb      	ldr	r3, [r7, #8]
 8002a3e:	2b00      	cmp	r3, #0
 8002a40:	d103      	bne.n	8002a4a <xQueueGenericSend+0x32>
 8002a42:	68fb      	ldr	r3, [r7, #12]
 8002a44:	6c1b      	ldr	r3, [r3, #64]	; 0x40
 8002a46:	2b00      	cmp	r3, #0
 8002a48:	d102      	bne.n	8002a50 <xQueueGenericSend+0x38>
 8002a4a:	f04f 0301 	mov.w	r3, #1
 8002a4e:	e001      	b.n	8002a54 <xQueueGenericSend+0x3c>
 8002a50:	f04f 0300 	mov.w	r3, #0
 8002a54:	2b00      	cmp	r3, #0
 8002a56:	d105      	bne.n	8002a64 <xQueueGenericSend+0x4c>
 8002a58:	f04f 0050 	mov.w	r0, #80	; 0x50
 8002a5c:	f380 8811 	msr	BASEPRI, r0
 8002a60:	e7fe      	b.n	8002a60 <xQueueGenericSend+0x48>
 8002a62:	bf00      	nop
 8002a64:	f7ff fe38 	bl	80026d8 <vPortEnterCritical>
 8002a68:	68fb      	ldr	r3, [r7, #12]
 8002a6a:	6b9a      	ldr	r2, [r3, #56]	; 0x38
 8002a6c:	68fb      	ldr	r3, [r7, #12]
 8002a6e:	6bdb      	ldr	r3, [r3, #60]	; 0x3c
 8002a70:	429a      	cmp	r2, r3
 8002a72:	d218      	bcs.n	8002aa6 <xQueueGenericSend+0x8e>
 8002a74:	68f8      	ldr	r0, [r7, #12]
 8002a76:	68b9      	ldr	r1, [r7, #8]
 8002a78:	683a      	ldr	r2, [r7, #0]
 8002a7a:	f000 f9a9 	bl	8002dd0 <prvCopyDataToQueue>
 8002a7e:	68fb      	ldr	r3, [r7, #12]
 8002a80:	6a5b      	ldr	r3, [r3, #36]	; 0x24
 8002a82:	2b00      	cmp	r3, #0
 8002a84:	d00a      	beq.n	8002a9c <xQueueGenericSend+0x84>
 8002a86:	68fb      	ldr	r3, [r7, #12]
 8002a88:	f103 0324 	add.w	r3, r3, #36	; 0x24
 8002a8c:	4618      	mov	r0, r3
 8002a8e:	f000 ff31 	bl	80038f4 <xTaskRemoveFromEventList>
 8002a92:	4603      	mov	r3, r0
 8002a94:	2b01      	cmp	r3, #1
 8002a96:	d101      	bne.n	8002a9c <xQueueGenericSend+0x84>
 8002a98:	f7ff fe12 	bl	80026c0 <vPortYieldFromISR>
 8002a9c:	f7ff fe2e 	bl	80026fc <vPortExitCritical>
 8002aa0:	f04f 0301 	mov.w	r3, #1
 8002aa4:	e05d      	b.n	8002b62 <xQueueGenericSend+0x14a>
 8002aa6:	687b      	ldr	r3, [r7, #4]
 8002aa8:	2b00      	cmp	r3, #0
 8002aaa:	d104      	bne.n	8002ab6 <xQueueGenericSend+0x9e>
 8002aac:	f7ff fe26 	bl	80026fc <vPortExitCritical>
 8002ab0:	f04f 0300 	mov.w	r3, #0
 8002ab4:	e055      	b.n	8002b62 <xQueueGenericSend+0x14a>
 8002ab6:	69fb      	ldr	r3, [r7, #28]
 8002ab8:	2b00      	cmp	r3, #0
 8002aba:	d107      	bne.n	8002acc <xQueueGenericSend+0xb4>
 8002abc:	f107 0314 	add.w	r3, r7, #20
 8002ac0:	4618      	mov	r0, r3
 8002ac2:	f000 ff79 	bl	80039b8 <vTaskSetTimeOutState>
 8002ac6:	f04f 0301 	mov.w	r3, #1
 8002aca:	61fb      	str	r3, [r7, #28]
 8002acc:	f7ff fe16 	bl	80026fc <vPortExitCritical>
 8002ad0:	f000 fcc2 	bl	8003458 <vTaskSuspendAll>
 8002ad4:	f7ff fe00 	bl	80026d8 <vPortEnterCritical>
 8002ad8:	68fb      	ldr	r3, [r7, #12]
 8002ada:	6c5b      	ldr	r3, [r3, #68]	; 0x44
 8002adc:	f1b3 3fff 	cmp.w	r3, #4294967295
 8002ae0:	d103      	bne.n	8002aea <xQueueGenericSend+0xd2>
 8002ae2:	68fb      	ldr	r3, [r7, #12]
 8002ae4:	f04f 0200 	mov.w	r2, #0
 8002ae8:	645a      	str	r2, [r3, #68]	; 0x44
 8002aea:	68fb      	ldr	r3, [r7, #12]
 8002aec:	6c9b      	ldr	r3, [r3, #72]	; 0x48
 8002aee:	f1b3 3fff 	cmp.w	r3, #4294967295
 8002af2:	d103      	bne.n	8002afc <xQueueGenericSend+0xe4>
 8002af4:	68fb      	ldr	r3, [r7, #12]
 8002af6:	f04f 0200 	mov.w	r2, #0
 8002afa:	649a      	str	r2, [r3, #72]	; 0x48
 8002afc:	f7ff fdfe 	bl	80026fc <vPortExitCritical>
 8002b00:	f107 0214 	add.w	r2, r7, #20
 8002b04:	f107 0304 	add.w	r3, r7, #4
 8002b08:	4610      	mov	r0, r2
 8002b0a:	4619      	mov	r1, r3
 8002b0c:	f000 ff72 	bl	80039f4 <xTaskCheckForTimeOut>
 8002b10:	4603      	mov	r3, r0
 8002b12:	2b00      	cmp	r3, #0
 8002b14:	d11e      	bne.n	8002b54 <xQueueGenericSend+0x13c>
 8002b16:	68f8      	ldr	r0, [r7, #12]
 8002b18:	f000 fa3c 	bl	8002f94 <prvIsQueueFull>
 8002b1c:	4603      	mov	r3, r0
 8002b1e:	2b00      	cmp	r3, #0
 8002b20:	d012      	beq.n	8002b48 <xQueueGenericSend+0x130>
 8002b22:	68fb      	ldr	r3, [r7, #12]
 8002b24:	f103 0210 	add.w	r2, r3, #16
 8002b28:	687b      	ldr	r3, [r7, #4]
 8002b2a:	4610      	mov	r0, r2
 8002b2c:	4619      	mov	r1, r3
 8002b2e:	f000 fe79 	bl	8003824 <vTaskPlaceOnEventList>
 8002b32:	68f8      	ldr	r0, [r7, #12]
 8002b34:	f000 f9c8 	bl	8002ec8 <prvUnlockQueue>
 8002b38:	f000 fc9c 	bl	8003474 <xTaskResumeAll>
 8002b3c:	4603      	mov	r3, r0
 8002b3e:	2b00      	cmp	r3, #0
 8002b40:	d18f      	bne.n	8002a62 <xQueueGenericSend+0x4a>
 8002b42:	f7ff fdbd 	bl	80026c0 <vPortYieldFromISR>
 8002b46:	e78d      	b.n	8002a64 <xQueueGenericSend+0x4c>
 8002b48:	68f8      	ldr	r0, [r7, #12]
 8002b4a:	f000 f9bd 	bl	8002ec8 <prvUnlockQueue>
 8002b4e:	f000 fc91 	bl	8003474 <xTaskResumeAll>
 8002b52:	e787      	b.n	8002a64 <xQueueGenericSend+0x4c>
 8002b54:	68f8      	ldr	r0, [r7, #12]
 8002b56:	f000 f9b7 	bl	8002ec8 <prvUnlockQueue>
 8002b5a:	f000 fc8b 	bl	8003474 <xTaskResumeAll>
 8002b5e:	f04f 0300 	mov.w	r3, #0
 8002b62:	4618      	mov	r0, r3
 8002b64:	f107 0720 	add.w	r7, r7, #32
 8002b68:	46bd      	mov	sp, r7
 8002b6a:	bd80      	pop	{r7, pc}

08002b6c <xQueueGenericSendFromISR>:
 8002b6c:	b580      	push	{r7, lr}
 8002b6e:	b086      	sub	sp, #24
 8002b70:	af00      	add	r7, sp, #0
 8002b72:	60f8      	str	r0, [r7, #12]
 8002b74:	60b9      	str	r1, [r7, #8]
 8002b76:	607a      	str	r2, [r7, #4]
 8002b78:	603b      	str	r3, [r7, #0]
 8002b7a:	68fb      	ldr	r3, [r7, #12]
 8002b7c:	2b00      	cmp	r3, #0
 8002b7e:	d104      	bne.n	8002b8a <xQueueGenericSendFromISR+0x1e>
 8002b80:	f04f 0050 	mov.w	r0, #80	; 0x50
 8002b84:	f380 8811 	msr	BASEPRI, r0
 8002b88:	e7fe      	b.n	8002b88 <xQueueGenericSendFromISR+0x1c>
 8002b8a:	687b      	ldr	r3, [r7, #4]
 8002b8c:	2b00      	cmp	r3, #0
 8002b8e:	d104      	bne.n	8002b9a <xQueueGenericSendFromISR+0x2e>
 8002b90:	f04f 0050 	mov.w	r0, #80	; 0x50
 8002b94:	f380 8811 	msr	BASEPRI, r0
 8002b98:	e7fe      	b.n	8002b98 <xQueueGenericSendFromISR+0x2c>
 8002b9a:	68bb      	ldr	r3, [r7, #8]
 8002b9c:	2b00      	cmp	r3, #0
 8002b9e:	d103      	bne.n	8002ba8 <xQueueGenericSendFromISR+0x3c>
 8002ba0:	68fb      	ldr	r3, [r7, #12]
 8002ba2:	6c1b      	ldr	r3, [r3, #64]	; 0x40
 8002ba4:	2b00      	cmp	r3, #0
 8002ba6:	d102      	bne.n	8002bae <xQueueGenericSendFromISR+0x42>
 8002ba8:	f04f 0301 	mov.w	r3, #1
 8002bac:	e001      	b.n	8002bb2 <xQueueGenericSendFromISR+0x46>
 8002bae:	f04f 0300 	mov.w	r3, #0
 8002bb2:	2b00      	cmp	r3, #0
 8002bb4:	d104      	bne.n	8002bc0 <xQueueGenericSendFromISR+0x54>
 8002bb6:	f04f 0050 	mov.w	r0, #80	; 0x50
 8002bba:	f380 8811 	msr	BASEPRI, r0
 8002bbe:	e7fe      	b.n	8002bbe <xQueueGenericSendFromISR+0x52>
 8002bc0:	f04f 0300 	mov.w	r3, #0
 8002bc4:	613b      	str	r3, [r7, #16]
 8002bc6:	f04f 0050 	mov.w	r0, #80	; 0x50
 8002bca:	f380 8811 	msr	BASEPRI, r0
 8002bce:	68fb      	ldr	r3, [r7, #12]
 8002bd0:	6b9a      	ldr	r2, [r3, #56]	; 0x38
 8002bd2:	68fb      	ldr	r3, [r7, #12]
 8002bd4:	6bdb      	ldr	r3, [r3, #60]	; 0x3c
 8002bd6:	429a      	cmp	r2, r3
 8002bd8:	d225      	bcs.n	8002c26 <xQueueGenericSendFromISR+0xba>
 8002bda:	68f8      	ldr	r0, [r7, #12]
 8002bdc:	68b9      	ldr	r1, [r7, #8]
 8002bde:	683a      	ldr	r2, [r7, #0]
 8002be0:	f000 f8f6 	bl	8002dd0 <prvCopyDataToQueue>
 8002be4:	68fb      	ldr	r3, [r7, #12]
 8002be6:	6c9b      	ldr	r3, [r3, #72]	; 0x48
 8002be8:	f1b3 3fff 	cmp.w	r3, #4294967295
 8002bec:	d111      	bne.n	8002c12 <xQueueGenericSendFromISR+0xa6>
 8002bee:	68fb      	ldr	r3, [r7, #12]
 8002bf0:	6a5b      	ldr	r3, [r3, #36]	; 0x24
 8002bf2:	2b00      	cmp	r3, #0
 8002bf4:	d013      	beq.n	8002c1e <xQueueGenericSendFromISR+0xb2>
 8002bf6:	68fb      	ldr	r3, [r7, #12]
 8002bf8:	f103 0324 	add.w	r3, r3, #36	; 0x24
 8002bfc:	4618      	mov	r0, r3
 8002bfe:	f000 fe79 	bl	80038f4 <xTaskRemoveFromEventList>
 8002c02:	4603      	mov	r3, r0
 8002c04:	2b00      	cmp	r3, #0
 8002c06:	d00a      	beq.n	8002c1e <xQueueGenericSendFromISR+0xb2>
 8002c08:	687b      	ldr	r3, [r7, #4]
 8002c0a:	f04f 0201 	mov.w	r2, #1
 8002c0e:	601a      	str	r2, [r3, #0]
 8002c10:	e005      	b.n	8002c1e <xQueueGenericSendFromISR+0xb2>
 8002c12:	68fb      	ldr	r3, [r7, #12]
 8002c14:	6c9b      	ldr	r3, [r3, #72]	; 0x48
 8002c16:	f103 0201 	add.w	r2, r3, #1
 8002c1a:	68fb      	ldr	r3, [r7, #12]
 8002c1c:	649a      	str	r2, [r3, #72]	; 0x48
 8002c1e:	f04f 0301 	mov.w	r3, #1
 8002c22:	617b      	str	r3, [r7, #20]
 8002c24:	e002      	b.n	8002c2c <xQueueGenericSendFromISR+0xc0>
 8002c26:	f04f 0300 	mov.w	r3, #0
 8002c2a:	617b      	str	r3, [r7, #20]
 8002c2c:	f04f 0000 	mov.w	r0, #0
 8002c30:	f380 8811 	msr	BASEPRI, r0
 8002c34:	697b      	ldr	r3, [r7, #20]
 8002c36:	4618      	mov	r0, r3
 8002c38:	f107 0718 	add.w	r7, r7, #24
 8002c3c:	46bd      	mov	sp, r7
 8002c3e:	bd80      	pop	{r7, pc}

08002c40 <xQueueGenericReceive>:
 8002c40:	b580      	push	{r7, lr}
 8002c42:	b088      	sub	sp, #32
 8002c44:	af00      	add	r7, sp, #0
 8002c46:	60f8      	str	r0, [r7, #12]
 8002c48:	60b9      	str	r1, [r7, #8]
 8002c4a:	607a      	str	r2, [r7, #4]
 8002c4c:	603b      	str	r3, [r7, #0]
 8002c4e:	f04f 0300 	mov.w	r3, #0
 8002c52:	61fb      	str	r3, [r7, #28]
 8002c54:	68fb      	ldr	r3, [r7, #12]
 8002c56:	2b00      	cmp	r3, #0
 8002c58:	d104      	bne.n	8002c64 <xQueueGenericReceive+0x24>
 8002c5a:	f04f 0050 	mov.w	r0, #80	; 0x50
 8002c5e:	f380 8811 	msr	BASEPRI, r0
 8002c62:	e7fe      	b.n	8002c62 <xQueueGenericReceive+0x22>
 8002c64:	68bb      	ldr	r3, [r7, #8]
 8002c66:	2b00      	cmp	r3, #0
 8002c68:	d103      	bne.n	8002c72 <xQueueGenericReceive+0x32>
 8002c6a:	68fb      	ldr	r3, [r7, #12]
 8002c6c:	6c1b      	ldr	r3, [r3, #64]	; 0x40
 8002c6e:	2b00      	cmp	r3, #0
 8002c70:	d102      	bne.n	8002c78 <xQueueGenericReceive+0x38>
 8002c72:	f04f 0301 	mov.w	r3, #1
 8002c76:	e001      	b.n	8002c7c <xQueueGenericReceive+0x3c>
 8002c78:	f04f 0300 	mov.w	r3, #0
 8002c7c:	2b00      	cmp	r3, #0
 8002c7e:	d105      	bne.n	8002c8c <xQueueGenericReceive+0x4c>
 8002c80:	f04f 0050 	mov.w	r0, #80	; 0x50
 8002c84:	f380 8811 	msr	BASEPRI, r0
 8002c88:	e7fe      	b.n	8002c88 <xQueueGenericReceive+0x48>
 8002c8a:	bf00      	nop
 8002c8c:	f7ff fd24 	bl	80026d8 <vPortEnterCritical>
 8002c90:	68fb      	ldr	r3, [r7, #12]
 8002c92:	6b9b      	ldr	r3, [r3, #56]	; 0x38
 8002c94:	2b00      	cmp	r3, #0
 8002c96:	d036      	beq.n	8002d06 <xQueueGenericReceive+0xc6>
 8002c98:	68fb      	ldr	r3, [r7, #12]
 8002c9a:	68db      	ldr	r3, [r3, #12]
 8002c9c:	61bb      	str	r3, [r7, #24]
 8002c9e:	68f8      	ldr	r0, [r7, #12]
 8002ca0:	68b9      	ldr	r1, [r7, #8]
 8002ca2:	f000 f8e9 	bl	8002e78 <prvCopyDataFromQueue>
 8002ca6:	683b      	ldr	r3, [r7, #0]
 8002ca8:	2b00      	cmp	r3, #0
 8002caa:	d115      	bne.n	8002cd8 <xQueueGenericReceive+0x98>
 8002cac:	68fb      	ldr	r3, [r7, #12]
 8002cae:	6b9b      	ldr	r3, [r3, #56]	; 0x38
 8002cb0:	f103 32ff 	add.w	r2, r3, #4294967295
 8002cb4:	68fb      	ldr	r3, [r7, #12]
 8002cb6:	639a      	str	r2, [r3, #56]	; 0x38
 8002cb8:	68fb      	ldr	r3, [r7, #12]
 8002cba:	691b      	ldr	r3, [r3, #16]
 8002cbc:	2b00      	cmp	r3, #0
 8002cbe:	d01d      	beq.n	8002cfc <xQueueGenericReceive+0xbc>
 8002cc0:	68fb      	ldr	r3, [r7, #12]
 8002cc2:	f103 0310 	add.w	r3, r3, #16
 8002cc6:	4618      	mov	r0, r3
 8002cc8:	f000 fe14 	bl	80038f4 <xTaskRemoveFromEventList>
 8002ccc:	4603      	mov	r3, r0
 8002cce:	2b01      	cmp	r3, #1
 8002cd0:	d114      	bne.n	8002cfc <xQueueGenericReceive+0xbc>
 8002cd2:	f7ff fcf5 	bl	80026c0 <vPortYieldFromISR>
 8002cd6:	e011      	b.n	8002cfc <xQueueGenericReceive+0xbc>
 8002cd8:	68fb      	ldr	r3, [r7, #12]
 8002cda:	69ba      	ldr	r2, [r7, #24]
 8002cdc:	60da      	str	r2, [r3, #12]
 8002cde:	68fb      	ldr	r3, [r7, #12]
 8002ce0:	6a5b      	ldr	r3, [r3, #36]	; 0x24
 8002ce2:	2b00      	cmp	r3, #0
 8002ce4:	d00a      	beq.n	8002cfc <xQueueGenericReceive+0xbc>
 8002ce6:	68fb      	ldr	r3, [r7, #12]
 8002ce8:	f103 0324 	add.w	r3, r3, #36	; 0x24
 8002cec:	4618      	mov	r0, r3
 8002cee:	f000 fe01 	bl	80038f4 <xTaskRemoveFromEventList>
 8002cf2:	4603      	mov	r3, r0
 8002cf4:	2b00      	cmp	r3, #0
 8002cf6:	d001      	beq.n	8002cfc <xQueueGenericReceive+0xbc>
 8002cf8:	f7ff fce2 	bl	80026c0 <vPortYieldFromISR>
 8002cfc:	f7ff fcfe 	bl	80026fc <vPortExitCritical>
 8002d00:	f04f 0301 	mov.w	r3, #1
 8002d04:	e05e      	b.n	8002dc4 <xQueueGenericReceive+0x184>
 8002d06:	687b      	ldr	r3, [r7, #4]
 8002d08:	2b00      	cmp	r3, #0
 8002d0a:	d104      	bne.n	8002d16 <xQueueGenericReceive+0xd6>
 8002d0c:	f7ff fcf6 	bl	80026fc <vPortExitCritical>
 8002d10:	f04f 0300 	mov.w	r3, #0
 8002d14:	e056      	b.n	8002dc4 <xQueueGenericReceive+0x184>
 8002d16:	69fb      	ldr	r3, [r7, #28]
 8002d18:	2b00      	cmp	r3, #0
 8002d1a:	d107      	bne.n	8002d2c <xQueueGenericReceive+0xec>
 8002d1c:	f107 0310 	add.w	r3, r7, #16
 8002d20:	4618      	mov	r0, r3
 8002d22:	f000 fe49 	bl	80039b8 <vTaskSetTimeOutState>
 8002d26:	f04f 0301 	mov.w	r3, #1
 8002d2a:	61fb      	str	r3, [r7, #28]
 8002d2c:	f7ff fce6 	bl	80026fc <vPortExitCritical>
 8002d30:	f000 fb92 	bl	8003458 <vTaskSuspendAll>
 8002d34:	f7ff fcd0 	bl	80026d8 <vPortEnterCritical>
 8002d38:	68fb      	ldr	r3, [r7, #12]
 8002d3a:	6c5b      	ldr	r3, [r3, #68]	; 0x44
 8002d3c:	f1b3 3fff 	cmp.w	r3, #4294967295
 8002d40:	d103      	bne.n	8002d4a <xQueueGenericReceive+0x10a>
 8002d42:	68fb      	ldr	r3, [r7, #12]
 8002d44:	f04f 0200 	mov.w	r2, #0
 8002d48:	645a      	str	r2, [r3, #68]	; 0x44
 8002d4a:	68fb      	ldr	r3, [r7, #12]
 8002d4c:	6c9b      	ldr	r3, [r3, #72]	; 0x48
 8002d4e:	f1b3 3fff 	cmp.w	r3, #4294967295
 8002d52:	d103      	bne.n	8002d5c <xQueueGenericReceive+0x11c>
 8002d54:	68fb      	ldr	r3, [r7, #12]
 8002d56:	f04f 0200 	mov.w	r2, #0
 8002d5a:	649a      	str	r2, [r3, #72]	; 0x48
 8002d5c:	f7ff fcce 	bl	80026fc <vPortExitCritical>
 8002d60:	f107 0210 	add.w	r2, r7, #16
 8002d64:	f107 0304 	add.w	r3, r7, #4
 8002d68:	4610      	mov	r0, r2
 8002d6a:	4619      	mov	r1, r3
 8002d6c:	f000 fe42 	bl	80039f4 <xTaskCheckForTimeOut>
 8002d70:	4603      	mov	r3, r0
 8002d72:	2b00      	cmp	r3, #0
 8002d74:	d11f      	bne.n	8002db6 <xQueueGenericReceive+0x176>
 8002d76:	68f8      	ldr	r0, [r7, #12]
 8002d78:	f000 f8f6 	bl	8002f68 <prvIsQueueEmpty>
 8002d7c:	4603      	mov	r3, r0
 8002d7e:	2b00      	cmp	r3, #0
 8002d80:	d013      	beq.n	8002daa <xQueueGenericReceive+0x16a>
 8002d82:	68fb      	ldr	r3, [r7, #12]
 8002d84:	f103 0224 	add.w	r2, r3, #36	; 0x24
 8002d88:	687b      	ldr	r3, [r7, #4]
 8002d8a:	4610      	mov	r0, r2
 8002d8c:	4619      	mov	r1, r3
 8002d8e:	f000 fd49 	bl	8003824 <vTaskPlaceOnEventList>
 8002d92:	68f8      	ldr	r0, [r7, #12]
 8002d94:	f000 f898 	bl	8002ec8 <prvUnlockQueue>
 8002d98:	f000 fb6c 	bl	8003474 <xTaskResumeAll>
 8002d9c:	4603      	mov	r3, r0
 8002d9e:	2b00      	cmp	r3, #0
 8002da0:	f47f af73 	bne.w	8002c8a <xQueueGenericReceive+0x4a>
 8002da4:	f7ff fc8c 	bl	80026c0 <vPortYieldFromISR>
 8002da8:	e770      	b.n	8002c8c <xQueueGenericReceive+0x4c>
 8002daa:	68f8      	ldr	r0, [r7, #12]
 8002dac:	f000 f88c 	bl	8002ec8 <prvUnlockQueue>
 8002db0:	f000 fb60 	bl	8003474 <xTaskResumeAll>
 8002db4:	e76a      	b.n	8002c8c <xQueueGenericReceive+0x4c>
 8002db6:	68f8      	ldr	r0, [r7, #12]
 8002db8:	f000 f886 	bl	8002ec8 <prvUnlockQueue>
 8002dbc:	f000 fb5a 	bl	8003474 <xTaskResumeAll>
 8002dc0:	f04f 0300 	mov.w	r3, #0
 8002dc4:	4618      	mov	r0, r3
 8002dc6:	f107 0720 	add.w	r7, r7, #32
 8002dca:	46bd      	mov	sp, r7
 8002dcc:	bd80      	pop	{r7, pc}
 8002dce:	bf00      	nop

08002dd0 <prvCopyDataToQueue>:
 8002dd0:	b580      	push	{r7, lr}
 8002dd2:	b084      	sub	sp, #16
 8002dd4:	af00      	add	r7, sp, #0
 8002dd6:	60f8      	str	r0, [r7, #12]
 8002dd8:	60b9      	str	r1, [r7, #8]
 8002dda:	607a      	str	r2, [r7, #4]
 8002ddc:	68fb      	ldr	r3, [r7, #12]
 8002dde:	6c1b      	ldr	r3, [r3, #64]	; 0x40
 8002de0:	2b00      	cmp	r3, #0
 8002de2:	d03e      	beq.n	8002e62 <prvCopyDataToQueue+0x92>
 8002de4:	687b      	ldr	r3, [r7, #4]
 8002de6:	2b00      	cmp	r3, #0
 8002de8:	d11a      	bne.n	8002e20 <prvCopyDataToQueue+0x50>
 8002dea:	68fb      	ldr	r3, [r7, #12]
 8002dec:	689a      	ldr	r2, [r3, #8]
 8002dee:	68fb      	ldr	r3, [r7, #12]
 8002df0:	6c1b      	ldr	r3, [r3, #64]	; 0x40
 8002df2:	4610      	mov	r0, r2
 8002df4:	68b9      	ldr	r1, [r7, #8]
 8002df6:	461a      	mov	r2, r3
 8002df8:	f7fd fa38 	bl	800026c <memcpy>
 8002dfc:	68fb      	ldr	r3, [r7, #12]
 8002dfe:	689a      	ldr	r2, [r3, #8]
 8002e00:	68fb      	ldr	r3, [r7, #12]
 8002e02:	6c1b      	ldr	r3, [r3, #64]	; 0x40
 8002e04:	18d2      	adds	r2, r2, r3
 8002e06:	68fb      	ldr	r3, [r7, #12]
 8002e08:	609a      	str	r2, [r3, #8]
 8002e0a:	68fb      	ldr	r3, [r7, #12]
 8002e0c:	689a      	ldr	r2, [r3, #8]
 8002e0e:	68fb      	ldr	r3, [r7, #12]
 8002e10:	685b      	ldr	r3, [r3, #4]
 8002e12:	429a      	cmp	r2, r3
 8002e14:	d325      	bcc.n	8002e62 <prvCopyDataToQueue+0x92>
 8002e16:	68fb      	ldr	r3, [r7, #12]
 8002e18:	681a      	ldr	r2, [r3, #0]
 8002e1a:	68fb      	ldr	r3, [r7, #12]
 8002e1c:	609a      	str	r2, [r3, #8]
 8002e1e:	e020      	b.n	8002e62 <prvCopyDataToQueue+0x92>
 8002e20:	68fb      	ldr	r3, [r7, #12]
 8002e22:	68da      	ldr	r2, [r3, #12]
 8002e24:	68fb      	ldr	r3, [r7, #12]
 8002e26:	6c1b      	ldr	r3, [r3, #64]	; 0x40
 8002e28:	4610      	mov	r0, r2
 8002e2a:	68b9      	ldr	r1, [r7, #8]
 8002e2c:	461a      	mov	r2, r3
 8002e2e:	f7fd fa1d 	bl	800026c <memcpy>
 8002e32:	68fb      	ldr	r3, [r7, #12]
 8002e34:	68da      	ldr	r2, [r3, #12]
 8002e36:	68fb      	ldr	r3, [r7, #12]
 8002e38:	6c1b      	ldr	r3, [r3, #64]	; 0x40
 8002e3a:	f1c3 0300 	rsb	r3, r3, #0
 8002e3e:	18d2      	adds	r2, r2, r3
 8002e40:	68fb      	ldr	r3, [r7, #12]
 8002e42:	60da      	str	r2, [r3, #12]
 8002e44:	68fb      	ldr	r3, [r7, #12]
 8002e46:	68da      	ldr	r2, [r3, #12]
 8002e48:	68fb      	ldr	r3, [r7, #12]
 8002e4a:	681b      	ldr	r3, [r3, #0]
 8002e4c:	429a      	cmp	r2, r3
 8002e4e:	d208      	bcs.n	8002e62 <prvCopyDataToQueue+0x92>
 8002e50:	68fb      	ldr	r3, [r7, #12]
 8002e52:	685a      	ldr	r2, [r3, #4]
 8002e54:	68fb      	ldr	r3, [r7, #12]
 8002e56:	6c1b      	ldr	r3, [r3, #64]	; 0x40
 8002e58:	f1c3 0300 	rsb	r3, r3, #0
 8002e5c:	18d2      	adds	r2, r2, r3
 8002e5e:	68fb      	ldr	r3, [r7, #12]
 8002e60:	60da      	str	r2, [r3, #12]
 8002e62:	68fb      	ldr	r3, [r7, #12]
 8002e64:	6b9b      	ldr	r3, [r3, #56]	; 0x38
 8002e66:	f103 0201 	add.w	r2, r3, #1
 8002e6a:	68fb      	ldr	r3, [r7, #12]
 8002e6c:	639a      	str	r2, [r3, #56]	; 0x38
 8002e6e:	f107 0710 	add.w	r7, r7, #16
 8002e72:	46bd      	mov	sp, r7
 8002e74:	bd80      	pop	{r7, pc}
 8002e76:	bf00      	nop

08002e78 <prvCopyDataFromQueue>:
 8002e78:	b580      	push	{r7, lr}
 8002e7a:	b082      	sub	sp, #8
 8002e7c:	af00      	add	r7, sp, #0
 8002e7e:	6078      	str	r0, [r7, #4]
 8002e80:	6039      	str	r1, [r7, #0]
 8002e82:	687b      	ldr	r3, [r7, #4]
 8002e84:	681b      	ldr	r3, [r3, #0]
 8002e86:	2b00      	cmp	r3, #0
 8002e88:	d019      	beq.n	8002ebe <prvCopyDataFromQueue+0x46>
 8002e8a:	687b      	ldr	r3, [r7, #4]
 8002e8c:	68da      	ldr	r2, [r3, #12]
 8002e8e:	687b      	ldr	r3, [r7, #4]
 8002e90:	6c1b      	ldr	r3, [r3, #64]	; 0x40
 8002e92:	18d2      	adds	r2, r2, r3
 8002e94:	687b      	ldr	r3, [r7, #4]
 8002e96:	60da      	str	r2, [r3, #12]
 8002e98:	687b      	ldr	r3, [r7, #4]
 8002e9a:	68da      	ldr	r2, [r3, #12]
 8002e9c:	687b      	ldr	r3, [r7, #4]
 8002e9e:	685b      	ldr	r3, [r3, #4]
 8002ea0:	429a      	cmp	r2, r3
 8002ea2:	d303      	bcc.n	8002eac <prvCopyDataFromQueue+0x34>
 8002ea4:	687b      	ldr	r3, [r7, #4]
 8002ea6:	681a      	ldr	r2, [r3, #0]
 8002ea8:	687b      	ldr	r3, [r7, #4]
 8002eaa:	60da      	str	r2, [r3, #12]
 8002eac:	687b      	ldr	r3, [r7, #4]
 8002eae:	68da      	ldr	r2, [r3, #12]
 8002eb0:	687b      	ldr	r3, [r7, #4]
 8002eb2:	6c1b      	ldr	r3, [r3, #64]	; 0x40
 8002eb4:	6838      	ldr	r0, [r7, #0]
 8002eb6:	4611      	mov	r1, r2
 8002eb8:	461a      	mov	r2, r3
 8002eba:	f7fd f9d7 	bl	800026c <memcpy>
 8002ebe:	f107 0708 	add.w	r7, r7, #8
 8002ec2:	46bd      	mov	sp, r7
 8002ec4:	bd80      	pop	{r7, pc}
 8002ec6:	bf00      	nop

08002ec8 <prvUnlockQueue>:
 8002ec8:	b580      	push	{r7, lr}
 8002eca:	b082      	sub	sp, #8
 8002ecc:	af00      	add	r7, sp, #0
 8002ece:	6078      	str	r0, [r7, #4]
 8002ed0:	f7ff fc02 	bl	80026d8 <vPortEnterCritical>
 8002ed4:	e014      	b.n	8002f00 <prvUnlockQueue+0x38>
 8002ed6:	687b      	ldr	r3, [r7, #4]
 8002ed8:	6a5b      	ldr	r3, [r3, #36]	; 0x24
 8002eda:	2b00      	cmp	r3, #0
 8002edc:	d015      	beq.n	8002f0a <prvUnlockQueue+0x42>
 8002ede:	687b      	ldr	r3, [r7, #4]
 8002ee0:	f103 0324 	add.w	r3, r3, #36	; 0x24
 8002ee4:	4618      	mov	r0, r3
 8002ee6:	f000 fd05 	bl	80038f4 <xTaskRemoveFromEventList>
 8002eea:	4603      	mov	r3, r0
 8002eec:	2b00      	cmp	r3, #0
 8002eee:	d001      	beq.n	8002ef4 <prvUnlockQueue+0x2c>
 8002ef0:	f000 fdda 	bl	8003aa8 <vTaskMissedYield>
 8002ef4:	687b      	ldr	r3, [r7, #4]
 8002ef6:	6c9b      	ldr	r3, [r3, #72]	; 0x48
 8002ef8:	f103 32ff 	add.w	r2, r3, #4294967295
 8002efc:	687b      	ldr	r3, [r7, #4]
 8002efe:	649a      	str	r2, [r3, #72]	; 0x48
 8002f00:	687b      	ldr	r3, [r7, #4]
 8002f02:	6c9b      	ldr	r3, [r3, #72]	; 0x48
 8002f04:	2b00      	cmp	r3, #0
 8002f06:	dce6      	bgt.n	8002ed6 <prvUnlockQueue+0xe>
 8002f08:	e000      	b.n	8002f0c <prvUnlockQueue+0x44>
 8002f0a:	bf00      	nop
 8002f0c:	687b      	ldr	r3, [r7, #4]
 8002f0e:	f04f 32ff 	mov.w	r2, #4294967295
 8002f12:	649a      	str	r2, [r3, #72]	; 0x48
 8002f14:	f7ff fbf2 	bl	80026fc <vPortExitCritical>
 8002f18:	f7ff fbde 	bl	80026d8 <vPortEnterCritical>
 8002f1c:	e014      	b.n	8002f48 <prvUnlockQueue+0x80>
 8002f1e:	687b      	ldr	r3, [r7, #4]
 8002f20:	691b      	ldr	r3, [r3, #16]
 8002f22:	2b00      	cmp	r3, #0
 8002f24:	d015      	beq.n	8002f52 <prvUnlockQueue+0x8a>
 8002f26:	687b      	ldr	r3, [r7, #4]
 8002f28:	f103 0310 	add.w	r3, r3, #16
 8002f2c:	4618      	mov	r0, r3
 8002f2e:	f000 fce1 	bl	80038f4 <xTaskRemoveFromEventList>
 8002f32:	4603      	mov	r3, r0
 8002f34:	2b00      	cmp	r3, #0
 8002f36:	d001      	beq.n	8002f3c <prvUnlockQueue+0x74>
 8002f38:	f000 fdb6 	bl	8003aa8 <vTaskMissedYield>
 8002f3c:	687b      	ldr	r3, [r7, #4]
 8002f3e:	6c5b      	ldr	r3, [r3, #68]	; 0x44
 8002f40:	f103 32ff 	add.w	r2, r3, #4294967295
 8002f44:	687b      	ldr	r3, [r7, #4]
 8002f46:	645a      	str	r2, [r3, #68]	; 0x44
 8002f48:	687b      	ldr	r3, [r7, #4]
 8002f4a:	6c5b      	ldr	r3, [r3, #68]	; 0x44
 8002f4c:	2b00      	cmp	r3, #0
 8002f4e:	dce6      	bgt.n	8002f1e <prvUnlockQueue+0x56>
 8002f50:	e000      	b.n	8002f54 <prvUnlockQueue+0x8c>
 8002f52:	bf00      	nop
 8002f54:	687b      	ldr	r3, [r7, #4]
 8002f56:	f04f 32ff 	mov.w	r2, #4294967295
 8002f5a:	645a      	str	r2, [r3, #68]	; 0x44
 8002f5c:	f7ff fbce 	bl	80026fc <vPortExitCritical>
 8002f60:	f107 0708 	add.w	r7, r7, #8
 8002f64:	46bd      	mov	sp, r7
 8002f66:	bd80      	pop	{r7, pc}

08002f68 <prvIsQueueEmpty>:
 8002f68:	b580      	push	{r7, lr}
 8002f6a:	b084      	sub	sp, #16
 8002f6c:	af00      	add	r7, sp, #0
 8002f6e:	6078      	str	r0, [r7, #4]
 8002f70:	f7ff fbb2 	bl	80026d8 <vPortEnterCritical>
 8002f74:	687b      	ldr	r3, [r7, #4]
 8002f76:	6b9b      	ldr	r3, [r3, #56]	; 0x38
 8002f78:	2b00      	cmp	r3, #0
 8002f7a:	bf14      	ite	ne
 8002f7c:	2300      	movne	r3, #0
 8002f7e:	2301      	moveq	r3, #1
 8002f80:	60fb      	str	r3, [r7, #12]
 8002f82:	f7ff fbbb 	bl	80026fc <vPortExitCritical>
 8002f86:	68fb      	ldr	r3, [r7, #12]
 8002f88:	4618      	mov	r0, r3
 8002f8a:	f107 0710 	add.w	r7, r7, #16
 8002f8e:	46bd      	mov	sp, r7
 8002f90:	bd80      	pop	{r7, pc}
 8002f92:	bf00      	nop

08002f94 <prvIsQueueFull>:
 8002f94:	b580      	push	{r7, lr}
 8002f96:	b084      	sub	sp, #16
 8002f98:	af00      	add	r7, sp, #0
 8002f9a:	6078      	str	r0, [r7, #4]
 8002f9c:	f7ff fb9c 	bl	80026d8 <vPortEnterCritical>
 8002fa0:	687b      	ldr	r3, [r7, #4]
 8002fa2:	6b9a      	ldr	r2, [r3, #56]	; 0x38
 8002fa4:	687b      	ldr	r3, [r7, #4]
 8002fa6:	6bdb      	ldr	r3, [r3, #60]	; 0x3c
 8002fa8:	429a      	cmp	r2, r3
 8002faa:	bf14      	ite	ne
 8002fac:	2300      	movne	r3, #0
 8002fae:	2301      	moveq	r3, #1
 8002fb0:	60fb      	str	r3, [r7, #12]
 8002fb2:	f7ff fba3 	bl	80026fc <vPortExitCritical>
 8002fb6:	68fb      	ldr	r3, [r7, #12]
 8002fb8:	4618      	mov	r0, r3
 8002fba:	f107 0710 	add.w	r7, r7, #16
 8002fbe:	46bd      	mov	sp, r7
 8002fc0:	bd80      	pop	{r7, pc}
 8002fc2:	bf00      	nop

08002fc4 <vQueueWaitForMessageRestricted>:
 8002fc4:	b580      	push	{r7, lr}
 8002fc6:	b082      	sub	sp, #8
 8002fc8:	af00      	add	r7, sp, #0
 8002fca:	6078      	str	r0, [r7, #4]
 8002fcc:	6039      	str	r1, [r7, #0]
 8002fce:	f7ff fb83 	bl	80026d8 <vPortEnterCritical>
 8002fd2:	687b      	ldr	r3, [r7, #4]
 8002fd4:	6c5b      	ldr	r3, [r3, #68]	; 0x44
 8002fd6:	f1b3 3fff 	cmp.w	r3, #4294967295
 8002fda:	d103      	bne.n	8002fe4 <vQueueWaitForMessageRestricted+0x20>
 8002fdc:	687b      	ldr	r3, [r7, #4]
 8002fde:	f04f 0200 	mov.w	r2, #0
 8002fe2:	645a      	str	r2, [r3, #68]	; 0x44
 8002fe4:	687b      	ldr	r3, [r7, #4]
 8002fe6:	6c9b      	ldr	r3, [r3, #72]	; 0x48
 8002fe8:	f1b3 3fff 	cmp.w	r3, #4294967295
 8002fec:	d103      	bne.n	8002ff6 <vQueueWaitForMessageRestricted+0x32>
 8002fee:	687b      	ldr	r3, [r7, #4]
 8002ff0:	f04f 0200 	mov.w	r2, #0
 8002ff4:	649a      	str	r2, [r3, #72]	; 0x48
 8002ff6:	f7ff fb81 	bl	80026fc <vPortExitCritical>
 8002ffa:	687b      	ldr	r3, [r7, #4]
 8002ffc:	6b9b      	ldr	r3, [r3, #56]	; 0x38
 8002ffe:	2b00      	cmp	r3, #0
 8003000:	d106      	bne.n	8003010 <vQueueWaitForMessageRestricted+0x4c>
 8003002:	687b      	ldr	r3, [r7, #4]
 8003004:	f103 0324 	add.w	r3, r3, #36	; 0x24
 8003008:	4618      	mov	r0, r3
 800300a:	6839      	ldr	r1, [r7, #0]
 800300c:	f000 fc46 	bl	800389c <vTaskPlaceOnEventListRestricted>
 8003010:	6878      	ldr	r0, [r7, #4]
 8003012:	f7ff ff59 	bl	8002ec8 <prvUnlockQueue>
 8003016:	f107 0708 	add.w	r7, r7, #8
 800301a:	46bd      	mov	sp, r7
 800301c:	bd80      	pop	{r7, pc}
 800301e:	bf00      	nop

08003020 <xTaskGenericCreate>:
 8003020:	b580      	push	{r7, lr}
 8003022:	b08a      	sub	sp, #40	; 0x28
 8003024:	af02      	add	r7, sp, #8
 8003026:	60f8      	str	r0, [r7, #12]
 8003028:	60b9      	str	r1, [r7, #8]
 800302a:	603b      	str	r3, [r7, #0]
 800302c:	4613      	mov	r3, r2
 800302e:	80fb      	strh	r3, [r7, #6]
 8003030:	68fb      	ldr	r3, [r7, #12]
 8003032:	2b00      	cmp	r3, #0
 8003034:	d104      	bne.n	8003040 <xTaskGenericCreate+0x20>
 8003036:	f04f 0050 	mov.w	r0, #80	; 0x50
 800303a:	f380 8811 	msr	BASEPRI, r0
 800303e:	e7fe      	b.n	800303e <xTaskGenericCreate+0x1e>
 8003040:	6abb      	ldr	r3, [r7, #40]	; 0x28
 8003042:	2b04      	cmp	r3, #4
 8003044:	d904      	bls.n	8003050 <xTaskGenericCreate+0x30>
 8003046:	f04f 0050 	mov.w	r0, #80	; 0x50
 800304a:	f380 8811 	msr	BASEPRI, r0
 800304e:	e7fe      	b.n	800304e <xTaskGenericCreate+0x2e>
 8003050:	88fb      	ldrh	r3, [r7, #6]
 8003052:	4618      	mov	r0, r3
 8003054:	6b39      	ldr	r1, [r7, #48]	; 0x30
 8003056:	f000 fe3b 	bl	8003cd0 <prvAllocateTCBAndStack>
 800305a:	61b8      	str	r0, [r7, #24]
 800305c:	69bb      	ldr	r3, [r7, #24]
 800305e:	2b00      	cmp	r3, #0
 8003060:	f000 808e 	beq.w	8003180 <xTaskGenericCreate+0x160>
 8003064:	69bb      	ldr	r3, [r7, #24]
 8003066:	6b1a      	ldr	r2, [r3, #48]	; 0x30
 8003068:	88fb      	ldrh	r3, [r7, #6]
 800306a:	f103 33ff 	add.w	r3, r3, #4294967295
 800306e:	ea4f 0383 	mov.w	r3, r3, lsl #2
 8003072:	18d3      	adds	r3, r2, r3
 8003074:	617b      	str	r3, [r7, #20]
 8003076:	697b      	ldr	r3, [r7, #20]
 8003078:	f023 0307 	bic.w	r3, r3, #7
 800307c:	617b      	str	r3, [r7, #20]
 800307e:	697b      	ldr	r3, [r7, #20]
 8003080:	f003 0307 	and.w	r3, r3, #7
 8003084:	2b00      	cmp	r3, #0
 8003086:	d004      	beq.n	8003092 <xTaskGenericCreate+0x72>
 8003088:	f04f 0050 	mov.w	r0, #80	; 0x50
 800308c:	f380 8811 	msr	BASEPRI, r0
 8003090:	e7fe      	b.n	8003090 <xTaskGenericCreate+0x70>
 8003092:	88fb      	ldrh	r3, [r7, #6]
 8003094:	9300      	str	r3, [sp, #0]
 8003096:	69b8      	ldr	r0, [r7, #24]
 8003098:	68b9      	ldr	r1, [r7, #8]
 800309a:	6aba      	ldr	r2, [r7, #40]	; 0x28
 800309c:	6b7b      	ldr	r3, [r7, #52]	; 0x34
 800309e:	f000 fd21 	bl	8003ae4 <prvInitialiseTCBVariables>
 80030a2:	6978      	ldr	r0, [r7, #20]
 80030a4:	68f9      	ldr	r1, [r7, #12]
 80030a6:	683a      	ldr	r2, [r7, #0]
 80030a8:	f7ff faa2 	bl	80025f0 <pxPortInitialiseStack>
 80030ac:	4603      	mov	r3, r0
 80030ae:	461a      	mov	r2, r3
 80030b0:	69bb      	ldr	r3, [r7, #24]
 80030b2:	601a      	str	r2, [r3, #0]
 80030b4:	69bb      	ldr	r3, [r7, #24]
 80030b6:	681b      	ldr	r3, [r3, #0]
 80030b8:	f003 0307 	and.w	r3, r3, #7
 80030bc:	2b00      	cmp	r3, #0
 80030be:	d004      	beq.n	80030ca <xTaskGenericCreate+0xaa>
 80030c0:	f04f 0050 	mov.w	r0, #80	; 0x50
 80030c4:	f380 8811 	msr	BASEPRI, r0
 80030c8:	e7fe      	b.n	80030c8 <xTaskGenericCreate+0xa8>
 80030ca:	6afb      	ldr	r3, [r7, #44]	; 0x2c
 80030cc:	2b00      	cmp	r3, #0
 80030ce:	d002      	beq.n	80030d6 <xTaskGenericCreate+0xb6>
 80030d0:	6afb      	ldr	r3, [r7, #44]	; 0x2c
 80030d2:	69ba      	ldr	r2, [r7, #24]
 80030d4:	601a      	str	r2, [r3, #0]
 80030d6:	f7ff faff 	bl	80026d8 <vPortEnterCritical>
 80030da:	4b35      	ldr	r3, [pc, #212]	; (80031b0 <xTaskGenericCreate+0x190>)
 80030dc:	681b      	ldr	r3, [r3, #0]
 80030de:	f103 0201 	add.w	r2, r3, #1
 80030e2:	4b33      	ldr	r3, [pc, #204]	; (80031b0 <xTaskGenericCreate+0x190>)
 80030e4:	601a      	str	r2, [r3, #0]
 80030e6:	4b33      	ldr	r3, [pc, #204]	; (80031b4 <xTaskGenericCreate+0x194>)
 80030e8:	681b      	ldr	r3, [r3, #0]
 80030ea:	2b00      	cmp	r3, #0
 80030ec:	d109      	bne.n	8003102 <xTaskGenericCreate+0xe2>
 80030ee:	4b31      	ldr	r3, [pc, #196]	; (80031b4 <xTaskGenericCreate+0x194>)
 80030f0:	69ba      	ldr	r2, [r7, #24]
 80030f2:	601a      	str	r2, [r3, #0]
 80030f4:	4b2e      	ldr	r3, [pc, #184]	; (80031b0 <xTaskGenericCreate+0x190>)
 80030f6:	681b      	ldr	r3, [r3, #0]
 80030f8:	2b01      	cmp	r3, #1
 80030fa:	d10f      	bne.n	800311c <xTaskGenericCreate+0xfc>
 80030fc:	f000 fd2e 	bl	8003b5c <prvInitialiseTaskLists>
 8003100:	e00c      	b.n	800311c <xTaskGenericCreate+0xfc>
 8003102:	4b2d      	ldr	r3, [pc, #180]	; (80031b8 <xTaskGenericCreate+0x198>)
 8003104:	681b      	ldr	r3, [r3, #0]
 8003106:	2b00      	cmp	r3, #0
 8003108:	d108      	bne.n	800311c <xTaskGenericCreate+0xfc>
 800310a:	4b2a      	ldr	r3, [pc, #168]	; (80031b4 <xTaskGenericCreate+0x194>)
 800310c:	681b      	ldr	r3, [r3, #0]
 800310e:	6ada      	ldr	r2, [r3, #44]	; 0x2c
 8003110:	6abb      	ldr	r3, [r7, #40]	; 0x28
 8003112:	429a      	cmp	r2, r3
 8003114:	d802      	bhi.n	800311c <xTaskGenericCreate+0xfc>
 8003116:	4b27      	ldr	r3, [pc, #156]	; (80031b4 <xTaskGenericCreate+0x194>)
 8003118:	69ba      	ldr	r2, [r7, #24]
 800311a:	601a      	str	r2, [r3, #0]
 800311c:	69bb      	ldr	r3, [r7, #24]
 800311e:	6ada      	ldr	r2, [r3, #44]	; 0x2c
 8003120:	4b26      	ldr	r3, [pc, #152]	; (80031bc <xTaskGenericCreate+0x19c>)
 8003122:	681b      	ldr	r3, [r3, #0]
 8003124:	429a      	cmp	r2, r3
 8003126:	d903      	bls.n	8003130 <xTaskGenericCreate+0x110>
 8003128:	69bb      	ldr	r3, [r7, #24]
 800312a:	6ada      	ldr	r2, [r3, #44]	; 0x2c
 800312c:	4b23      	ldr	r3, [pc, #140]	; (80031bc <xTaskGenericCreate+0x19c>)
 800312e:	601a      	str	r2, [r3, #0]
 8003130:	4b23      	ldr	r3, [pc, #140]	; (80031c0 <xTaskGenericCreate+0x1a0>)
 8003132:	681b      	ldr	r3, [r3, #0]
 8003134:	f103 0201 	add.w	r2, r3, #1
 8003138:	4b21      	ldr	r3, [pc, #132]	; (80031c0 <xTaskGenericCreate+0x1a0>)
 800313a:	601a      	str	r2, [r3, #0]
 800313c:	69bb      	ldr	r3, [r7, #24]
 800313e:	6ada      	ldr	r2, [r3, #44]	; 0x2c
 8003140:	4b20      	ldr	r3, [pc, #128]	; (80031c4 <xTaskGenericCreate+0x1a4>)
 8003142:	681b      	ldr	r3, [r3, #0]
 8003144:	429a      	cmp	r2, r3
 8003146:	d903      	bls.n	8003150 <xTaskGenericCreate+0x130>
 8003148:	69bb      	ldr	r3, [r7, #24]
 800314a:	6ada      	ldr	r2, [r3, #44]	; 0x2c
 800314c:	4b1d      	ldr	r3, [pc, #116]	; (80031c4 <xTaskGenericCreate+0x1a4>)
 800314e:	601a      	str	r2, [r3, #0]
 8003150:	69bb      	ldr	r3, [r7, #24]
 8003152:	6ada      	ldr	r2, [r3, #44]	; 0x2c
 8003154:	4613      	mov	r3, r2
 8003156:	ea4f 0383 	mov.w	r3, r3, lsl #2
 800315a:	189b      	adds	r3, r3, r2
 800315c:	ea4f 0383 	mov.w	r3, r3, lsl #2
 8003160:	461a      	mov	r2, r3
 8003162:	4b19      	ldr	r3, [pc, #100]	; (80031c8 <xTaskGenericCreate+0x1a8>)
 8003164:	18d2      	adds	r2, r2, r3
 8003166:	69bb      	ldr	r3, [r7, #24]
 8003168:	f103 0304 	add.w	r3, r3, #4
 800316c:	4610      	mov	r0, r2
 800316e:	4619      	mov	r1, r3
 8003170:	f7ff fb56 	bl	8002820 <vListInsertEnd>
 8003174:	f04f 0301 	mov.w	r3, #1
 8003178:	61fb      	str	r3, [r7, #28]
 800317a:	f7ff fabf 	bl	80026fc <vPortExitCritical>
 800317e:	e002      	b.n	8003186 <xTaskGenericCreate+0x166>
 8003180:	f04f 33ff 	mov.w	r3, #4294967295
 8003184:	61fb      	str	r3, [r7, #28]
 8003186:	69fb      	ldr	r3, [r7, #28]
 8003188:	2b01      	cmp	r3, #1
 800318a:	d10b      	bne.n	80031a4 <xTaskGenericCreate+0x184>
 800318c:	4b0a      	ldr	r3, [pc, #40]	; (80031b8 <xTaskGenericCreate+0x198>)
 800318e:	681b      	ldr	r3, [r3, #0]
 8003190:	2b00      	cmp	r3, #0
 8003192:	d007      	beq.n	80031a4 <xTaskGenericCreate+0x184>
 8003194:	4b07      	ldr	r3, [pc, #28]	; (80031b4 <xTaskGenericCreate+0x194>)
 8003196:	681b      	ldr	r3, [r3, #0]
 8003198:	6ada      	ldr	r2, [r3, #44]	; 0x2c
 800319a:	6abb      	ldr	r3, [r7, #40]	; 0x28
 800319c:	429a      	cmp	r2, r3
 800319e:	d201      	bcs.n	80031a4 <xTaskGenericCreate+0x184>
 80031a0:	f7ff fa8e 	bl	80026c0 <vPortYieldFromISR>
 80031a4:	69fb      	ldr	r3, [r7, #28]
 80031a6:	4618      	mov	r0, r3
 80031a8:	f107 0720 	add.w	r7, r7, #32
 80031ac:	46bd      	mov	sp, r7
 80031ae:	bd80      	pop	{r7, pc}
 80031b0:	2000c924 	.word	0x2000c924
 80031b4:	2000c84c 	.word	0x2000c84c
 80031b8:	2000c934 	.word	0x2000c934
 80031bc:	2000c92c 	.word	0x2000c92c
 80031c0:	2000c948 	.word	0x2000c948
 80031c4:	2000c930 	.word	0x2000c930
 80031c8:	2000c850 	.word	0x2000c850

080031cc <vTaskDelay>:
 80031cc:	b580      	push	{r7, lr}
 80031ce:	b084      	sub	sp, #16
 80031d0:	af00      	add	r7, sp, #0
 80031d2:	6078      	str	r0, [r7, #4]
 80031d4:	f04f 0300 	mov.w	r3, #0
 80031d8:	60fb      	str	r3, [r7, #12]
 80031da:	687b      	ldr	r3, [r7, #4]
 80031dc:	2b00      	cmp	r3, #0
 80031de:	d013      	beq.n	8003208 <vTaskDelay+0x3c>
 80031e0:	f000 f93a 	bl	8003458 <vTaskSuspendAll>
 80031e4:	4b0d      	ldr	r3, [pc, #52]	; (800321c <vTaskDelay+0x50>)
 80031e6:	681a      	ldr	r2, [r3, #0]
 80031e8:	687b      	ldr	r3, [r7, #4]
 80031ea:	18d3      	adds	r3, r2, r3
 80031ec:	60bb      	str	r3, [r7, #8]
 80031ee:	4b0c      	ldr	r3, [pc, #48]	; (8003220 <vTaskDelay+0x54>)
 80031f0:	681b      	ldr	r3, [r3, #0]
 80031f2:	f103 0304 	add.w	r3, r3, #4
 80031f6:	4618      	mov	r0, r3
 80031f8:	f7ff fb74 	bl	80028e4 <vListRemove>
 80031fc:	68b8      	ldr	r0, [r7, #8]
 80031fe:	f000 fd2f 	bl	8003c60 <prvAddCurrentTaskToDelayedList>
 8003202:	f000 f937 	bl	8003474 <xTaskResumeAll>
 8003206:	60f8      	str	r0, [r7, #12]
 8003208:	68fb      	ldr	r3, [r7, #12]
 800320a:	2b00      	cmp	r3, #0
 800320c:	d101      	bne.n	8003212 <vTaskDelay+0x46>
 800320e:	f7ff fa57 	bl	80026c0 <vPortYieldFromISR>
 8003212:	f107 0710 	add.w	r7, r7, #16
 8003216:	46bd      	mov	sp, r7
 8003218:	bd80      	pop	{r7, pc}
 800321a:	bf00      	nop
 800321c:	2000c928 	.word	0x2000c928
 8003220:	2000c84c 	.word	0x2000c84c

08003224 <vTaskSuspend>:
 8003224:	b580      	push	{r7, lr}
 8003226:	b084      	sub	sp, #16
 8003228:	af00      	add	r7, sp, #0
 800322a:	6078      	str	r0, [r7, #4]
 800322c:	f7ff fa54 	bl	80026d8 <vPortEnterCritical>
 8003230:	4b21      	ldr	r3, [pc, #132]	; (80032b8 <vTaskSuspend+0x94>)
 8003232:	681b      	ldr	r3, [r3, #0]
 8003234:	687a      	ldr	r2, [r7, #4]
 8003236:	429a      	cmp	r2, r3
 8003238:	d102      	bne.n	8003240 <vTaskSuspend+0x1c>
 800323a:	f04f 0300 	mov.w	r3, #0
 800323e:	607b      	str	r3, [r7, #4]
 8003240:	687b      	ldr	r3, [r7, #4]
 8003242:	2b00      	cmp	r3, #0
 8003244:	d102      	bne.n	800324c <vTaskSuspend+0x28>
 8003246:	4b1c      	ldr	r3, [pc, #112]	; (80032b8 <vTaskSuspend+0x94>)
 8003248:	681b      	ldr	r3, [r3, #0]
 800324a:	e000      	b.n	800324e <vTaskSuspend+0x2a>
 800324c:	687b      	ldr	r3, [r7, #4]
 800324e:	60fb      	str	r3, [r7, #12]
 8003250:	68fb      	ldr	r3, [r7, #12]
 8003252:	f103 0304 	add.w	r3, r3, #4
 8003256:	4618      	mov	r0, r3
 8003258:	f7ff fb44 	bl	80028e4 <vListRemove>
 800325c:	68fb      	ldr	r3, [r7, #12]
 800325e:	6a9b      	ldr	r3, [r3, #40]	; 0x28
 8003260:	2b00      	cmp	r3, #0
 8003262:	d005      	beq.n	8003270 <vTaskSuspend+0x4c>
 8003264:	68fb      	ldr	r3, [r7, #12]
 8003266:	f103 0318 	add.w	r3, r3, #24
 800326a:	4618      	mov	r0, r3
 800326c:	f7ff fb3a 	bl	80028e4 <vListRemove>
 8003270:	68fb      	ldr	r3, [r7, #12]
 8003272:	f103 0304 	add.w	r3, r3, #4
 8003276:	4811      	ldr	r0, [pc, #68]	; (80032bc <vTaskSuspend+0x98>)
 8003278:	4619      	mov	r1, r3
 800327a:	f7ff fad1 	bl	8002820 <vListInsertEnd>
 800327e:	f7ff fa3d 	bl	80026fc <vPortExitCritical>
 8003282:	687b      	ldr	r3, [r7, #4]
 8003284:	2b00      	cmp	r3, #0
 8003286:	d113      	bne.n	80032b0 <vTaskSuspend+0x8c>
 8003288:	4b0d      	ldr	r3, [pc, #52]	; (80032c0 <vTaskSuspend+0x9c>)
 800328a:	681b      	ldr	r3, [r3, #0]
 800328c:	2b00      	cmp	r3, #0
 800328e:	d002      	beq.n	8003296 <vTaskSuspend+0x72>
 8003290:	f7ff fa16 	bl	80026c0 <vPortYieldFromISR>
 8003294:	e00c      	b.n	80032b0 <vTaskSuspend+0x8c>
 8003296:	4b09      	ldr	r3, [pc, #36]	; (80032bc <vTaskSuspend+0x98>)
 8003298:	681a      	ldr	r2, [r3, #0]
 800329a:	4b0a      	ldr	r3, [pc, #40]	; (80032c4 <vTaskSuspend+0xa0>)
 800329c:	681b      	ldr	r3, [r3, #0]
 800329e:	429a      	cmp	r2, r3
 80032a0:	d104      	bne.n	80032ac <vTaskSuspend+0x88>
 80032a2:	4b05      	ldr	r3, [pc, #20]	; (80032b8 <vTaskSuspend+0x94>)
 80032a4:	f04f 0200 	mov.w	r2, #0
 80032a8:	601a      	str	r2, [r3, #0]
 80032aa:	e001      	b.n	80032b0 <vTaskSuspend+0x8c>
 80032ac:	f000 fa30 	bl	8003710 <vTaskSwitchContext>
 80032b0:	f107 0710 	add.w	r7, r7, #16
 80032b4:	46bd      	mov	sp, r7
 80032b6:	bd80      	pop	{r7, pc}
 80032b8:	2000c84c 	.word	0x2000c84c
 80032bc:	2000c910 	.word	0x2000c910
 80032c0:	2000c934 	.word	0x2000c934
 80032c4:	2000c924 	.word	0x2000c924

080032c8 <xTaskIsTaskSuspended>:
 80032c8:	b480      	push	{r7}
 80032ca:	b085      	sub	sp, #20
 80032cc:	af00      	add	r7, sp, #0
 80032ce:	6078      	str	r0, [r7, #4]
 80032d0:	f04f 0300 	mov.w	r3, #0
 80032d4:	60fb      	str	r3, [r7, #12]
 80032d6:	687b      	ldr	r3, [r7, #4]
 80032d8:	60bb      	str	r3, [r7, #8]
 80032da:	687b      	ldr	r3, [r7, #4]
 80032dc:	2b00      	cmp	r3, #0
 80032de:	d104      	bne.n	80032ea <xTaskIsTaskSuspended+0x22>
 80032e0:	f04f 0050 	mov.w	r0, #80	; 0x50
 80032e4:	f380 8811 	msr	BASEPRI, r0
 80032e8:	e7fe      	b.n	80032e8 <xTaskIsTaskSuspended+0x20>
 80032ea:	68bb      	ldr	r3, [r7, #8]
 80032ec:	695a      	ldr	r2, [r3, #20]
 80032ee:	4b0b      	ldr	r3, [pc, #44]	; (800331c <xTaskIsTaskSuspended+0x54>)
 80032f0:	429a      	cmp	r2, r3
 80032f2:	d10b      	bne.n	800330c <xTaskIsTaskSuspended+0x44>
 80032f4:	68bb      	ldr	r3, [r7, #8]
 80032f6:	6a9a      	ldr	r2, [r3, #40]	; 0x28
 80032f8:	4b09      	ldr	r3, [pc, #36]	; (8003320 <xTaskIsTaskSuspended+0x58>)
 80032fa:	429a      	cmp	r2, r3
 80032fc:	d006      	beq.n	800330c <xTaskIsTaskSuspended+0x44>
 80032fe:	68bb      	ldr	r3, [r7, #8]
 8003300:	6a9b      	ldr	r3, [r3, #40]	; 0x28
 8003302:	2b00      	cmp	r3, #0
 8003304:	d102      	bne.n	800330c <xTaskIsTaskSuspended+0x44>
 8003306:	f04f 0301 	mov.w	r3, #1
 800330a:	60fb      	str	r3, [r7, #12]
 800330c:	68fb      	ldr	r3, [r7, #12]
 800330e:	4618      	mov	r0, r3
 8003310:	f107 0714 	add.w	r7, r7, #20
 8003314:	46bd      	mov	sp, r7
 8003316:	bc80      	pop	{r7}
 8003318:	4770      	bx	lr
 800331a:	bf00      	nop
 800331c:	2000c910 	.word	0x2000c910
 8003320:	2000c8e4 	.word	0x2000c8e4

08003324 <vTaskResume>:
 8003324:	b580      	push	{r7, lr}
 8003326:	b084      	sub	sp, #16
 8003328:	af00      	add	r7, sp, #0
 800332a:	6078      	str	r0, [r7, #4]
 800332c:	687b      	ldr	r3, [r7, #4]
 800332e:	2b00      	cmp	r3, #0
 8003330:	d104      	bne.n	800333c <vTaskResume+0x18>
 8003332:	f04f 0050 	mov.w	r0, #80	; 0x50
 8003336:	f380 8811 	msr	BASEPRI, r0
 800333a:	e7fe      	b.n	800333a <vTaskResume+0x16>
 800333c:	687b      	ldr	r3, [r7, #4]
 800333e:	60fb      	str	r3, [r7, #12]
 8003340:	68fb      	ldr	r3, [r7, #12]
 8003342:	2b00      	cmp	r3, #0
 8003344:	d039      	beq.n	80033ba <vTaskResume+0x96>
 8003346:	4b1f      	ldr	r3, [pc, #124]	; (80033c4 <vTaskResume+0xa0>)
 8003348:	681b      	ldr	r3, [r3, #0]
 800334a:	68fa      	ldr	r2, [r7, #12]
 800334c:	429a      	cmp	r2, r3
 800334e:	d034      	beq.n	80033ba <vTaskResume+0x96>
 8003350:	f7ff f9c2 	bl	80026d8 <vPortEnterCritical>
 8003354:	68f8      	ldr	r0, [r7, #12]
 8003356:	f7ff ffb7 	bl	80032c8 <xTaskIsTaskSuspended>
 800335a:	4603      	mov	r3, r0
 800335c:	2b01      	cmp	r3, #1
 800335e:	d12a      	bne.n	80033b6 <vTaskResume+0x92>
 8003360:	68fb      	ldr	r3, [r7, #12]
 8003362:	f103 0304 	add.w	r3, r3, #4
 8003366:	4618      	mov	r0, r3
 8003368:	f7ff fabc 	bl	80028e4 <vListRemove>
 800336c:	68fb      	ldr	r3, [r7, #12]
 800336e:	6ada      	ldr	r2, [r3, #44]	; 0x2c
 8003370:	4b15      	ldr	r3, [pc, #84]	; (80033c8 <vTaskResume+0xa4>)
 8003372:	681b      	ldr	r3, [r3, #0]
 8003374:	429a      	cmp	r2, r3
 8003376:	d903      	bls.n	8003380 <vTaskResume+0x5c>
 8003378:	68fb      	ldr	r3, [r7, #12]
 800337a:	6ada      	ldr	r2, [r3, #44]	; 0x2c
 800337c:	4b12      	ldr	r3, [pc, #72]	; (80033c8 <vTaskResume+0xa4>)
 800337e:	601a      	str	r2, [r3, #0]
 8003380:	68fb      	ldr	r3, [r7, #12]
 8003382:	6ada      	ldr	r2, [r3, #44]	; 0x2c
 8003384:	4613      	mov	r3, r2
 8003386:	ea4f 0383 	mov.w	r3, r3, lsl #2
 800338a:	189b      	adds	r3, r3, r2
 800338c:	ea4f 0383 	mov.w	r3, r3, lsl #2
 8003390:	461a      	mov	r2, r3
 8003392:	4b0e      	ldr	r3, [pc, #56]	; (80033cc <vTaskResume+0xa8>)
 8003394:	18d2      	adds	r2, r2, r3
 8003396:	68fb      	ldr	r3, [r7, #12]
 8003398:	f103 0304 	add.w	r3, r3, #4
 800339c:	4610      	mov	r0, r2
 800339e:	4619      	mov	r1, r3
 80033a0:	f7ff fa3e 	bl	8002820 <vListInsertEnd>
 80033a4:	68fb      	ldr	r3, [r7, #12]
 80033a6:	6ada      	ldr	r2, [r3, #44]	; 0x2c
 80033a8:	4b06      	ldr	r3, [pc, #24]	; (80033c4 <vTaskResume+0xa0>)
 80033aa:	681b      	ldr	r3, [r3, #0]
 80033ac:	6adb      	ldr	r3, [r3, #44]	; 0x2c
 80033ae:	429a      	cmp	r2, r3
 80033b0:	d301      	bcc.n	80033b6 <vTaskResume+0x92>
 80033b2:	f7ff f985 	bl	80026c0 <vPortYieldFromISR>
 80033b6:	f7ff f9a1 	bl	80026fc <vPortExitCritical>
 80033ba:	f107 0710 	add.w	r7, r7, #16
 80033be:	46bd      	mov	sp, r7
 80033c0:	bd80      	pop	{r7, pc}
 80033c2:	bf00      	nop
 80033c4:	2000c84c 	.word	0x2000c84c
 80033c8:	2000c930 	.word	0x2000c930
 80033cc:	2000c850 	.word	0x2000c850

080033d0 <vTaskStartScheduler>:
 80033d0:	b580      	push	{r7, lr}
 80033d2:	b086      	sub	sp, #24
 80033d4:	af04      	add	r7, sp, #16
 80033d6:	4b1c      	ldr	r3, [pc, #112]	; (8003448 <vTaskStartScheduler+0x78>)
 80033d8:	f04f 0200 	mov.w	r2, #0
 80033dc:	9200      	str	r2, [sp, #0]
 80033de:	f04f 0200 	mov.w	r2, #0
 80033e2:	9201      	str	r2, [sp, #4]
 80033e4:	f04f 0200 	mov.w	r2, #0
 80033e8:	9202      	str	r2, [sp, #8]
 80033ea:	f04f 0200 	mov.w	r2, #0
 80033ee:	9203      	str	r2, [sp, #12]
 80033f0:	4816      	ldr	r0, [pc, #88]	; (800344c <vTaskStartScheduler+0x7c>)
 80033f2:	4619      	mov	r1, r3
 80033f4:	f04f 02c8 	mov.w	r2, #200	; 0xc8
 80033f8:	f04f 0300 	mov.w	r3, #0
 80033fc:	f7ff fe10 	bl	8003020 <xTaskGenericCreate>
 8003400:	6078      	str	r0, [r7, #4]
 8003402:	687b      	ldr	r3, [r7, #4]
 8003404:	2b01      	cmp	r3, #1
 8003406:	d102      	bne.n	800340e <vTaskStartScheduler+0x3e>
 8003408:	f000 fcce 	bl	8003da8 <xTimerCreateTimerTask>
 800340c:	6078      	str	r0, [r7, #4]
 800340e:	687b      	ldr	r3, [r7, #4]
 8003410:	2b01      	cmp	r3, #1
 8003412:	d10d      	bne.n	8003430 <vTaskStartScheduler+0x60>
 8003414:	f04f 0050 	mov.w	r0, #80	; 0x50
 8003418:	f380 8811 	msr	BASEPRI, r0
 800341c:	4b0c      	ldr	r3, [pc, #48]	; (8003450 <vTaskStartScheduler+0x80>)
 800341e:	f04f 0201 	mov.w	r2, #1
 8003422:	601a      	str	r2, [r3, #0]
 8003424:	4b0b      	ldr	r3, [pc, #44]	; (8003454 <vTaskStartScheduler+0x84>)
 8003426:	f04f 0200 	mov.w	r2, #0
 800342a:	601a      	str	r2, [r3, #0]
 800342c:	f7ff f92a 	bl	8002684 <xPortStartScheduler>
 8003430:	687b      	ldr	r3, [r7, #4]
 8003432:	2b00      	cmp	r3, #0
 8003434:	d104      	bne.n	8003440 <vTaskStartScheduler+0x70>
 8003436:	f04f 0050 	mov.w	r0, #80	; 0x50
 800343a:	f380 8811 	msr	BASEPRI, r0
 800343e:	e7fe      	b.n	800343e <vTaskStartScheduler+0x6e>
 8003440:	f107 0708 	add.w	r7, r7, #8
 8003444:	46bd      	mov	sp, r7
 8003446:	bd80      	pop	{r7, pc}
 8003448:	08004350 	.word	0x08004350
 800344c:	08003ac1 	.word	0x08003ac1
 8003450:	2000c934 	.word	0x2000c934
 8003454:	2000c928 	.word	0x2000c928

08003458 <vTaskSuspendAll>:
 8003458:	b480      	push	{r7}
 800345a:	af00      	add	r7, sp, #0
 800345c:	4b04      	ldr	r3, [pc, #16]	; (8003470 <vTaskSuspendAll+0x18>)
 800345e:	681b      	ldr	r3, [r3, #0]
 8003460:	f103 0201 	add.w	r2, r3, #1
 8003464:	4b02      	ldr	r3, [pc, #8]	; (8003470 <vTaskSuspendAll+0x18>)
 8003466:	601a      	str	r2, [r3, #0]
 8003468:	46bd      	mov	sp, r7
 800346a:	bc80      	pop	{r7}
 800346c:	4770      	bx	lr
 800346e:	bf00      	nop
 8003470:	2000c938 	.word	0x2000c938

08003474 <xTaskResumeAll>:
 8003474:	b590      	push	{r4, r7, lr}
 8003476:	b083      	sub	sp, #12
 8003478:	af00      	add	r7, sp, #0
 800347a:	f04f 0300 	mov.w	r3, #0
 800347e:	607b      	str	r3, [r7, #4]
 8003480:	4b3d      	ldr	r3, [pc, #244]	; (8003578 <xTaskResumeAll+0x104>)
 8003482:	681b      	ldr	r3, [r3, #0]
 8003484:	2b00      	cmp	r3, #0
 8003486:	d104      	bne.n	8003492 <xTaskResumeAll+0x1e>
 8003488:	f04f 0050 	mov.w	r0, #80	; 0x50
 800348c:	f380 8811 	msr	BASEPRI, r0
 8003490:	e7fe      	b.n	8003490 <xTaskResumeAll+0x1c>
 8003492:	f7ff f921 	bl	80026d8 <vPortEnterCritical>
 8003496:	4b38      	ldr	r3, [pc, #224]	; (8003578 <xTaskResumeAll+0x104>)
 8003498:	681b      	ldr	r3, [r3, #0]
 800349a:	f103 32ff 	add.w	r2, r3, #4294967295
 800349e:	4b36      	ldr	r3, [pc, #216]	; (8003578 <xTaskResumeAll+0x104>)
 80034a0:	601a      	str	r2, [r3, #0]
 80034a2:	4b35      	ldr	r3, [pc, #212]	; (8003578 <xTaskResumeAll+0x104>)
 80034a4:	681b      	ldr	r3, [r3, #0]
 80034a6:	2b00      	cmp	r3, #0
 80034a8:	d15e      	bne.n	8003568 <xTaskResumeAll+0xf4>
 80034aa:	4b34      	ldr	r3, [pc, #208]	; (800357c <xTaskResumeAll+0x108>)
 80034ac:	681b      	ldr	r3, [r3, #0]
 80034ae:	2b00      	cmp	r3, #0
 80034b0:	d05a      	beq.n	8003568 <xTaskResumeAll+0xf4>
 80034b2:	f04f 0300 	mov.w	r3, #0
 80034b6:	603b      	str	r3, [r7, #0]
 80034b8:	e02e      	b.n	8003518 <xTaskResumeAll+0xa4>
 80034ba:	4b31      	ldr	r3, [pc, #196]	; (8003580 <xTaskResumeAll+0x10c>)
 80034bc:	68db      	ldr	r3, [r3, #12]
 80034be:	68db      	ldr	r3, [r3, #12]
 80034c0:	461c      	mov	r4, r3
 80034c2:	f104 0318 	add.w	r3, r4, #24
 80034c6:	4618      	mov	r0, r3
 80034c8:	f7ff fa0c 	bl	80028e4 <vListRemove>
 80034cc:	f104 0304 	add.w	r3, r4, #4
 80034d0:	4618      	mov	r0, r3
 80034d2:	f7ff fa07 	bl	80028e4 <vListRemove>
 80034d6:	6ae2      	ldr	r2, [r4, #44]	; 0x2c
 80034d8:	4b2a      	ldr	r3, [pc, #168]	; (8003584 <xTaskResumeAll+0x110>)
 80034da:	681b      	ldr	r3, [r3, #0]
 80034dc:	429a      	cmp	r2, r3
 80034de:	d902      	bls.n	80034e6 <xTaskResumeAll+0x72>
 80034e0:	6ae2      	ldr	r2, [r4, #44]	; 0x2c
 80034e2:	4b28      	ldr	r3, [pc, #160]	; (8003584 <xTaskResumeAll+0x110>)
 80034e4:	601a      	str	r2, [r3, #0]
 80034e6:	6ae2      	ldr	r2, [r4, #44]	; 0x2c
 80034e8:	4613      	mov	r3, r2
 80034ea:	ea4f 0383 	mov.w	r3, r3, lsl #2
 80034ee:	189b      	adds	r3, r3, r2
 80034f0:	ea4f 0383 	mov.w	r3, r3, lsl #2
 80034f4:	461a      	mov	r2, r3
 80034f6:	4b24      	ldr	r3, [pc, #144]	; (8003588 <xTaskResumeAll+0x114>)
 80034f8:	18d2      	adds	r2, r2, r3
 80034fa:	f104 0304 	add.w	r3, r4, #4
 80034fe:	4610      	mov	r0, r2
 8003500:	4619      	mov	r1, r3
 8003502:	f7ff f98d 	bl	8002820 <vListInsertEnd>
 8003506:	6ae2      	ldr	r2, [r4, #44]	; 0x2c
 8003508:	4b20      	ldr	r3, [pc, #128]	; (800358c <xTaskResumeAll+0x118>)
 800350a:	681b      	ldr	r3, [r3, #0]
 800350c:	6adb      	ldr	r3, [r3, #44]	; 0x2c
 800350e:	429a      	cmp	r2, r3
 8003510:	d302      	bcc.n	8003518 <xTaskResumeAll+0xa4>
 8003512:	f04f 0301 	mov.w	r3, #1
 8003516:	603b      	str	r3, [r7, #0]
 8003518:	4b19      	ldr	r3, [pc, #100]	; (8003580 <xTaskResumeAll+0x10c>)
 800351a:	681b      	ldr	r3, [r3, #0]
 800351c:	2b00      	cmp	r3, #0
 800351e:	d1cc      	bne.n	80034ba <xTaskResumeAll+0x46>
 8003520:	4b1b      	ldr	r3, [pc, #108]	; (8003590 <xTaskResumeAll+0x11c>)
 8003522:	681b      	ldr	r3, [r3, #0]
 8003524:	2b00      	cmp	r3, #0
 8003526:	d00f      	beq.n	8003548 <xTaskResumeAll+0xd4>
 8003528:	e007      	b.n	800353a <xTaskResumeAll+0xc6>
 800352a:	f000 f847 	bl	80035bc <vTaskIncrementTick>
 800352e:	4b18      	ldr	r3, [pc, #96]	; (8003590 <xTaskResumeAll+0x11c>)
 8003530:	681b      	ldr	r3, [r3, #0]
 8003532:	f103 32ff 	add.w	r2, r3, #4294967295
 8003536:	4b16      	ldr	r3, [pc, #88]	; (8003590 <xTaskResumeAll+0x11c>)
 8003538:	601a      	str	r2, [r3, #0]
 800353a:	4b15      	ldr	r3, [pc, #84]	; (8003590 <xTaskResumeAll+0x11c>)
 800353c:	681b      	ldr	r3, [r3, #0]
 800353e:	2b00      	cmp	r3, #0
 8003540:	d1f3      	bne.n	800352a <xTaskResumeAll+0xb6>
 8003542:	f04f 0301 	mov.w	r3, #1
 8003546:	603b      	str	r3, [r7, #0]
 8003548:	683b      	ldr	r3, [r7, #0]
 800354a:	2b01      	cmp	r3, #1
 800354c:	d003      	beq.n	8003556 <xTaskResumeAll+0xe2>
 800354e:	4b11      	ldr	r3, [pc, #68]	; (8003594 <xTaskResumeAll+0x120>)
 8003550:	681b      	ldr	r3, [r3, #0]
 8003552:	2b01      	cmp	r3, #1
 8003554:	d108      	bne.n	8003568 <xTaskResumeAll+0xf4>
 8003556:	f04f 0301 	mov.w	r3, #1
 800355a:	607b      	str	r3, [r7, #4]
 800355c:	4b0d      	ldr	r3, [pc, #52]	; (8003594 <xTaskResumeAll+0x120>)
 800355e:	f04f 0200 	mov.w	r2, #0
 8003562:	601a      	str	r2, [r3, #0]
 8003564:	f7ff f8ac 	bl	80026c0 <vPortYieldFromISR>
 8003568:	f7ff f8c8 	bl	80026fc <vPortExitCritical>
 800356c:	687b      	ldr	r3, [r7, #4]
 800356e:	4618      	mov	r0, r3
 8003570:	f107 070c 	add.w	r7, r7, #12
 8003574:	46bd      	mov	sp, r7
 8003576:	bd90      	pop	{r4, r7, pc}
 8003578:	2000c938 	.word	0x2000c938
 800357c:	2000c924 	.word	0x2000c924
 8003580:	2000c8e4 	.word	0x2000c8e4
 8003584:	2000c930 	.word	0x2000c930
 8003588:	2000c850 	.word	0x2000c850
 800358c:	2000c84c 	.word	0x2000c84c
 8003590:	2000c93c 	.word	0x2000c93c
 8003594:	2000c940 	.word	0x2000c940

08003598 <xTaskGetTickCount>:
 8003598:	b580      	push	{r7, lr}
 800359a:	b082      	sub	sp, #8
 800359c:	af00      	add	r7, sp, #0
 800359e:	f7ff f89b 	bl	80026d8 <vPortEnterCritical>
 80035a2:	4b05      	ldr	r3, [pc, #20]	; (80035b8 <xTaskGetTickCount+0x20>)
 80035a4:	681b      	ldr	r3, [r3, #0]
 80035a6:	607b      	str	r3, [r7, #4]
 80035a8:	f7ff f8a8 	bl	80026fc <vPortExitCritical>
 80035ac:	687b      	ldr	r3, [r7, #4]
 80035ae:	4618      	mov	r0, r3
 80035b0:	f107 0708 	add.w	r7, r7, #8
 80035b4:	46bd      	mov	sp, r7
 80035b6:	bd80      	pop	{r7, pc}
 80035b8:	2000c928 	.word	0x2000c928

080035bc <vTaskIncrementTick>:
 80035bc:	b580      	push	{r7, lr}
 80035be:	b084      	sub	sp, #16
 80035c0:	af00      	add	r7, sp, #0
 80035c2:	4b4a      	ldr	r3, [pc, #296]	; (80036ec <vTaskIncrementTick+0x130>)
 80035c4:	681b      	ldr	r3, [r3, #0]
 80035c6:	2b00      	cmp	r3, #0
 80035c8:	f040 8085 	bne.w	80036d6 <vTaskIncrementTick+0x11a>
 80035cc:	4b48      	ldr	r3, [pc, #288]	; (80036f0 <vTaskIncrementTick+0x134>)
 80035ce:	681b      	ldr	r3, [r3, #0]
 80035d0:	f103 0201 	add.w	r2, r3, #1
 80035d4:	4b46      	ldr	r3, [pc, #280]	; (80036f0 <vTaskIncrementTick+0x134>)
 80035d6:	601a      	str	r2, [r3, #0]
 80035d8:	4b45      	ldr	r3, [pc, #276]	; (80036f0 <vTaskIncrementTick+0x134>)
 80035da:	681b      	ldr	r3, [r3, #0]
 80035dc:	2b00      	cmp	r3, #0
 80035de:	d12c      	bne.n	800363a <vTaskIncrementTick+0x7e>
 80035e0:	4b44      	ldr	r3, [pc, #272]	; (80036f4 <vTaskIncrementTick+0x138>)
 80035e2:	681b      	ldr	r3, [r3, #0]
 80035e4:	681b      	ldr	r3, [r3, #0]
 80035e6:	2b00      	cmp	r3, #0
 80035e8:	d004      	beq.n	80035f4 <vTaskIncrementTick+0x38>
 80035ea:	f04f 0050 	mov.w	r0, #80	; 0x50
 80035ee:	f380 8811 	msr	BASEPRI, r0
 80035f2:	e7fe      	b.n	80035f2 <vTaskIncrementTick+0x36>
 80035f4:	4b3f      	ldr	r3, [pc, #252]	; (80036f4 <vTaskIncrementTick+0x138>)
 80035f6:	681b      	ldr	r3, [r3, #0]
 80035f8:	60fb      	str	r3, [r7, #12]
 80035fa:	4b3f      	ldr	r3, [pc, #252]	; (80036f8 <vTaskIncrementTick+0x13c>)
 80035fc:	681a      	ldr	r2, [r3, #0]
 80035fe:	4b3d      	ldr	r3, [pc, #244]	; (80036f4 <vTaskIncrementTick+0x138>)
 8003600:	601a      	str	r2, [r3, #0]
 8003602:	4b3d      	ldr	r3, [pc, #244]	; (80036f8 <vTaskIncrementTick+0x13c>)
 8003604:	68fa      	ldr	r2, [r7, #12]
 8003606:	601a      	str	r2, [r3, #0]
 8003608:	4b3c      	ldr	r3, [pc, #240]	; (80036fc <vTaskIncrementTick+0x140>)
 800360a:	681b      	ldr	r3, [r3, #0]
 800360c:	f103 0201 	add.w	r2, r3, #1
 8003610:	4b3a      	ldr	r3, [pc, #232]	; (80036fc <vTaskIncrementTick+0x140>)
 8003612:	601a      	str	r2, [r3, #0]
 8003614:	4b37      	ldr	r3, [pc, #220]	; (80036f4 <vTaskIncrementTick+0x138>)
 8003616:	681b      	ldr	r3, [r3, #0]
 8003618:	681b      	ldr	r3, [r3, #0]
 800361a:	2b00      	cmp	r3, #0
 800361c:	d104      	bne.n	8003628 <vTaskIncrementTick+0x6c>
 800361e:	4b38      	ldr	r3, [pc, #224]	; (8003700 <vTaskIncrementTick+0x144>)
 8003620:	f04f 32ff 	mov.w	r2, #4294967295
 8003624:	601a      	str	r2, [r3, #0]
 8003626:	e008      	b.n	800363a <vTaskIncrementTick+0x7e>
 8003628:	4b32      	ldr	r3, [pc, #200]	; (80036f4 <vTaskIncrementTick+0x138>)
 800362a:	681b      	ldr	r3, [r3, #0]
 800362c:	68db      	ldr	r3, [r3, #12]
 800362e:	68db      	ldr	r3, [r3, #12]
 8003630:	60bb      	str	r3, [r7, #8]
 8003632:	68bb      	ldr	r3, [r7, #8]
 8003634:	685a      	ldr	r2, [r3, #4]
 8003636:	4b32      	ldr	r3, [pc, #200]	; (8003700 <vTaskIncrementTick+0x144>)
 8003638:	601a      	str	r2, [r3, #0]
 800363a:	4b2d      	ldr	r3, [pc, #180]	; (80036f0 <vTaskIncrementTick+0x134>)
 800363c:	681a      	ldr	r2, [r3, #0]
 800363e:	4b30      	ldr	r3, [pc, #192]	; (8003700 <vTaskIncrementTick+0x144>)
 8003640:	681b      	ldr	r3, [r3, #0]
 8003642:	429a      	cmp	r2, r3
 8003644:	d34d      	bcc.n	80036e2 <vTaskIncrementTick+0x126>
 8003646:	4b2b      	ldr	r3, [pc, #172]	; (80036f4 <vTaskIncrementTick+0x138>)
 8003648:	681b      	ldr	r3, [r3, #0]
 800364a:	681b      	ldr	r3, [r3, #0]
 800364c:	2b00      	cmp	r3, #0
 800364e:	d104      	bne.n	800365a <vTaskIncrementTick+0x9e>
 8003650:	4b2b      	ldr	r3, [pc, #172]	; (8003700 <vTaskIncrementTick+0x144>)
 8003652:	f04f 32ff 	mov.w	r2, #4294967295
 8003656:	601a      	str	r2, [r3, #0]
 8003658:	e043      	b.n	80036e2 <vTaskIncrementTick+0x126>
 800365a:	4b26      	ldr	r3, [pc, #152]	; (80036f4 <vTaskIncrementTick+0x138>)
 800365c:	681b      	ldr	r3, [r3, #0]
 800365e:	68db      	ldr	r3, [r3, #12]
 8003660:	68db      	ldr	r3, [r3, #12]
 8003662:	60bb      	str	r3, [r7, #8]
 8003664:	68bb      	ldr	r3, [r7, #8]
 8003666:	685b      	ldr	r3, [r3, #4]
 8003668:	607b      	str	r3, [r7, #4]
 800366a:	4b21      	ldr	r3, [pc, #132]	; (80036f0 <vTaskIncrementTick+0x134>)
 800366c:	681a      	ldr	r2, [r3, #0]
 800366e:	687b      	ldr	r3, [r7, #4]
 8003670:	429a      	cmp	r2, r3
 8003672:	d203      	bcs.n	800367c <vTaskIncrementTick+0xc0>
 8003674:	4b22      	ldr	r3, [pc, #136]	; (8003700 <vTaskIncrementTick+0x144>)
 8003676:	687a      	ldr	r2, [r7, #4]
 8003678:	601a      	str	r2, [r3, #0]
 800367a:	e032      	b.n	80036e2 <vTaskIncrementTick+0x126>
 800367c:	68bb      	ldr	r3, [r7, #8]
 800367e:	f103 0304 	add.w	r3, r3, #4
 8003682:	4618      	mov	r0, r3
 8003684:	f7ff f92e 	bl	80028e4 <vListRemove>
 8003688:	68bb      	ldr	r3, [r7, #8]
 800368a:	6a9b      	ldr	r3, [r3, #40]	; 0x28
 800368c:	2b00      	cmp	r3, #0
 800368e:	d005      	beq.n	800369c <vTaskIncrementTick+0xe0>
 8003690:	68bb      	ldr	r3, [r7, #8]
 8003692:	f103 0318 	add.w	r3, r3, #24
 8003696:	4618      	mov	r0, r3
 8003698:	f7ff f924 	bl	80028e4 <vListRemove>
 800369c:	68bb      	ldr	r3, [r7, #8]
 800369e:	6ada      	ldr	r2, [r3, #44]	; 0x2c
 80036a0:	4b18      	ldr	r3, [pc, #96]	; (8003704 <vTaskIncrementTick+0x148>)
 80036a2:	681b      	ldr	r3, [r3, #0]
 80036a4:	429a      	cmp	r2, r3
 80036a6:	d903      	bls.n	80036b0 <vTaskIncrementTick+0xf4>
 80036a8:	68bb      	ldr	r3, [r7, #8]
 80036aa:	6ada      	ldr	r2, [r3, #44]	; 0x2c
 80036ac:	4b15      	ldr	r3, [pc, #84]	; (8003704 <vTaskIncrementTick+0x148>)
 80036ae:	601a      	str	r2, [r3, #0]
 80036b0:	68bb      	ldr	r3, [r7, #8]
 80036b2:	6ada      	ldr	r2, [r3, #44]	; 0x2c
 80036b4:	4613      	mov	r3, r2
 80036b6:	ea4f 0383 	mov.w	r3, r3, lsl #2
 80036ba:	189b      	adds	r3, r3, r2
 80036bc:	ea4f 0383 	mov.w	r3, r3, lsl #2
 80036c0:	461a      	mov	r2, r3
 80036c2:	4b11      	ldr	r3, [pc, #68]	; (8003708 <vTaskIncrementTick+0x14c>)
 80036c4:	18d2      	adds	r2, r2, r3
 80036c6:	68bb      	ldr	r3, [r7, #8]
 80036c8:	f103 0304 	add.w	r3, r3, #4
 80036cc:	4610      	mov	r0, r2
 80036ce:	4619      	mov	r1, r3
 80036d0:	f7ff f8a6 	bl	8002820 <vListInsertEnd>
 80036d4:	e7b7      	b.n	8003646 <vTaskIncrementTick+0x8a>
 80036d6:	4b0d      	ldr	r3, [pc, #52]	; (800370c <vTaskIncrementTick+0x150>)
 80036d8:	681b      	ldr	r3, [r3, #0]
 80036da:	f103 0201 	add.w	r2, r3, #1
 80036de:	4b0b      	ldr	r3, [pc, #44]	; (800370c <vTaskIncrementTick+0x150>)
 80036e0:	601a      	str	r2, [r3, #0]
 80036e2:	f107 0710 	add.w	r7, r7, #16
 80036e6:	46bd      	mov	sp, r7
 80036e8:	bd80      	pop	{r7, pc}
 80036ea:	bf00      	nop
 80036ec:	2000c938 	.word	0x2000c938
 80036f0:	2000c928 	.word	0x2000c928
 80036f4:	2000c8dc 	.word	0x2000c8dc
 80036f8:	2000c8e0 	.word	0x2000c8e0
 80036fc:	2000c944 	.word	0x2000c944
 8003700:	20000024 	.word	0x20000024
 8003704:	2000c930 	.word	0x2000c930
 8003708:	2000c850 	.word	0x2000c850
 800370c:	2000c93c 	.word	0x2000c93c

08003710 <vTaskSwitchContext>:
 8003710:	b580      	push	{r7, lr}
 8003712:	b082      	sub	sp, #8
 8003714:	af00      	add	r7, sp, #0
 8003716:	4b3d      	ldr	r3, [pc, #244]	; (800380c <vTaskSwitchContext+0xfc>)
 8003718:	681b      	ldr	r3, [r3, #0]
 800371a:	2b00      	cmp	r3, #0
 800371c:	d004      	beq.n	8003728 <vTaskSwitchContext+0x18>
 800371e:	4b3c      	ldr	r3, [pc, #240]	; (8003810 <vTaskSwitchContext+0x100>)
 8003720:	f04f 0201 	mov.w	r2, #1
 8003724:	601a      	str	r2, [r3, #0]
 8003726:	e06c      	b.n	8003802 <vTaskSwitchContext+0xf2>
 8003728:	4b3a      	ldr	r3, [pc, #232]	; (8003814 <vTaskSwitchContext+0x104>)
 800372a:	681b      	ldr	r3, [r3, #0]
 800372c:	681a      	ldr	r2, [r3, #0]
 800372e:	4b39      	ldr	r3, [pc, #228]	; (8003814 <vTaskSwitchContext+0x104>)
 8003730:	681b      	ldr	r3, [r3, #0]
 8003732:	6b1b      	ldr	r3, [r3, #48]	; 0x30
 8003734:	429a      	cmp	r2, r3
 8003736:	d80a      	bhi.n	800374e <vTaskSwitchContext+0x3e>
 8003738:	4b36      	ldr	r3, [pc, #216]	; (8003814 <vTaskSwitchContext+0x104>)
 800373a:	681b      	ldr	r3, [r3, #0]
 800373c:	461a      	mov	r2, r3
 800373e:	4b35      	ldr	r3, [pc, #212]	; (8003814 <vTaskSwitchContext+0x104>)
 8003740:	681b      	ldr	r3, [r3, #0]
 8003742:	f103 0334 	add.w	r3, r3, #52	; 0x34
 8003746:	4610      	mov	r0, r2
 8003748:	4619      	mov	r1, r3
 800374a:	f7fd fabf 	bl	8000ccc <vApplicationStackOverflowHook>
 800374e:	4b31      	ldr	r3, [pc, #196]	; (8003814 <vTaskSwitchContext+0x104>)
 8003750:	681b      	ldr	r3, [r3, #0]
 8003752:	6b1b      	ldr	r3, [r3, #48]	; 0x30
 8003754:	4618      	mov	r0, r3
 8003756:	4930      	ldr	r1, [pc, #192]	; (8003818 <vTaskSwitchContext+0x108>)
 8003758:	f04f 0214 	mov.w	r2, #20
 800375c:	f7fc fd54 	bl	8000208 <memcmp>
 8003760:	4603      	mov	r3, r0
 8003762:	2b00      	cmp	r3, #0
 8003764:	d01b      	beq.n	800379e <vTaskSwitchContext+0x8e>
 8003766:	4b2b      	ldr	r3, [pc, #172]	; (8003814 <vTaskSwitchContext+0x104>)
 8003768:	681b      	ldr	r3, [r3, #0]
 800376a:	461a      	mov	r2, r3
 800376c:	4b29      	ldr	r3, [pc, #164]	; (8003814 <vTaskSwitchContext+0x104>)
 800376e:	681b      	ldr	r3, [r3, #0]
 8003770:	f103 0334 	add.w	r3, r3, #52	; 0x34
 8003774:	4610      	mov	r0, r2
 8003776:	4619      	mov	r1, r3
 8003778:	f7fd faa8 	bl	8000ccc <vApplicationStackOverflowHook>
 800377c:	e010      	b.n	80037a0 <vTaskSwitchContext+0x90>
 800377e:	4b27      	ldr	r3, [pc, #156]	; (800381c <vTaskSwitchContext+0x10c>)
 8003780:	681b      	ldr	r3, [r3, #0]
 8003782:	2b00      	cmp	r3, #0
 8003784:	d104      	bne.n	8003790 <vTaskSwitchContext+0x80>
 8003786:	f04f 0050 	mov.w	r0, #80	; 0x50
 800378a:	f380 8811 	msr	BASEPRI, r0
 800378e:	e7fe      	b.n	800378e <vTaskSwitchContext+0x7e>
 8003790:	4b22      	ldr	r3, [pc, #136]	; (800381c <vTaskSwitchContext+0x10c>)
 8003792:	681b      	ldr	r3, [r3, #0]
 8003794:	f103 32ff 	add.w	r2, r3, #4294967295
 8003798:	4b20      	ldr	r3, [pc, #128]	; (800381c <vTaskSwitchContext+0x10c>)
 800379a:	601a      	str	r2, [r3, #0]
 800379c:	e000      	b.n	80037a0 <vTaskSwitchContext+0x90>
 800379e:	bf00      	nop
 80037a0:	4b1e      	ldr	r3, [pc, #120]	; (800381c <vTaskSwitchContext+0x10c>)
 80037a2:	681a      	ldr	r2, [r3, #0]
 80037a4:	4613      	mov	r3, r2
 80037a6:	ea4f 0383 	mov.w	r3, r3, lsl #2
 80037aa:	189b      	adds	r3, r3, r2
 80037ac:	ea4f 0383 	mov.w	r3, r3, lsl #2
 80037b0:	461a      	mov	r2, r3
 80037b2:	4b1b      	ldr	r3, [pc, #108]	; (8003820 <vTaskSwitchContext+0x110>)
 80037b4:	18d3      	adds	r3, r2, r3
 80037b6:	681b      	ldr	r3, [r3, #0]
 80037b8:	2b00      	cmp	r3, #0
 80037ba:	d0e0      	beq.n	800377e <vTaskSwitchContext+0x6e>
 80037bc:	4b17      	ldr	r3, [pc, #92]	; (800381c <vTaskSwitchContext+0x10c>)
 80037be:	681a      	ldr	r2, [r3, #0]
 80037c0:	4613      	mov	r3, r2
 80037c2:	ea4f 0383 	mov.w	r3, r3, lsl #2
 80037c6:	189b      	adds	r3, r3, r2
 80037c8:	ea4f 0383 	mov.w	r3, r3, lsl #2
 80037cc:	461a      	mov	r2, r3
 80037ce:	4b14      	ldr	r3, [pc, #80]	; (8003820 <vTaskSwitchContext+0x110>)
 80037d0:	18d3      	adds	r3, r2, r3
 80037d2:	607b      	str	r3, [r7, #4]
 80037d4:	687b      	ldr	r3, [r7, #4]
 80037d6:	685b      	ldr	r3, [r3, #4]
 80037d8:	685a      	ldr	r2, [r3, #4]
 80037da:	687b      	ldr	r3, [r7, #4]
 80037dc:	605a      	str	r2, [r3, #4]
 80037de:	687b      	ldr	r3, [r7, #4]
 80037e0:	685a      	ldr	r2, [r3, #4]
 80037e2:	687b      	ldr	r3, [r7, #4]
 80037e4:	f103 0308 	add.w	r3, r3, #8
 80037e8:	429a      	cmp	r2, r3
 80037ea:	d104      	bne.n	80037f6 <vTaskSwitchContext+0xe6>
 80037ec:	687b      	ldr	r3, [r7, #4]
 80037ee:	685b      	ldr	r3, [r3, #4]
 80037f0:	685a      	ldr	r2, [r3, #4]
 80037f2:	687b      	ldr	r3, [r7, #4]
 80037f4:	605a      	str	r2, [r3, #4]
 80037f6:	687b      	ldr	r3, [r7, #4]
 80037f8:	685b      	ldr	r3, [r3, #4]
 80037fa:	68db      	ldr	r3, [r3, #12]
 80037fc:	461a      	mov	r2, r3
 80037fe:	4b05      	ldr	r3, [pc, #20]	; (8003814 <vTaskSwitchContext+0x104>)
 8003800:	601a      	str	r2, [r3, #0]
 8003802:	f107 0708 	add.w	r7, r7, #8
 8003806:	46bd      	mov	sp, r7
 8003808:	bd80      	pop	{r7, pc}
 800380a:	bf00      	nop
 800380c:	2000c938 	.word	0x2000c938
 8003810:	2000c940 	.word	0x2000c940
 8003814:	2000c84c 	.word	0x2000c84c
 8003818:	080043a4 	.word	0x080043a4
 800381c:	2000c930 	.word	0x2000c930
 8003820:	2000c850 	.word	0x2000c850

08003824 <vTaskPlaceOnEventList>:
 8003824:	b580      	push	{r7, lr}
 8003826:	b084      	sub	sp, #16
 8003828:	af00      	add	r7, sp, #0
 800382a:	6078      	str	r0, [r7, #4]
 800382c:	6039      	str	r1, [r7, #0]
 800382e:	687b      	ldr	r3, [r7, #4]
 8003830:	2b00      	cmp	r3, #0
 8003832:	d104      	bne.n	800383e <vTaskPlaceOnEventList+0x1a>
 8003834:	f04f 0050 	mov.w	r0, #80	; 0x50
 8003838:	f380 8811 	msr	BASEPRI, r0
 800383c:	e7fe      	b.n	800383c <vTaskPlaceOnEventList+0x18>
 800383e:	4b14      	ldr	r3, [pc, #80]	; (8003890 <vTaskPlaceOnEventList+0x6c>)
 8003840:	681b      	ldr	r3, [r3, #0]
 8003842:	f103 0318 	add.w	r3, r3, #24
 8003846:	6878      	ldr	r0, [r7, #4]
 8003848:	4619      	mov	r1, r3
 800384a:	f7ff f811 	bl	8002870 <vListInsert>
 800384e:	4b10      	ldr	r3, [pc, #64]	; (8003890 <vTaskPlaceOnEventList+0x6c>)
 8003850:	681b      	ldr	r3, [r3, #0]
 8003852:	f103 0304 	add.w	r3, r3, #4
 8003856:	4618      	mov	r0, r3
 8003858:	f7ff f844 	bl	80028e4 <vListRemove>
 800385c:	683b      	ldr	r3, [r7, #0]
 800385e:	f1b3 3fff 	cmp.w	r3, #4294967295
 8003862:	d108      	bne.n	8003876 <vTaskPlaceOnEventList+0x52>
 8003864:	4b0a      	ldr	r3, [pc, #40]	; (8003890 <vTaskPlaceOnEventList+0x6c>)
 8003866:	681b      	ldr	r3, [r3, #0]
 8003868:	f103 0304 	add.w	r3, r3, #4
 800386c:	4809      	ldr	r0, [pc, #36]	; (8003894 <vTaskPlaceOnEventList+0x70>)
 800386e:	4619      	mov	r1, r3
 8003870:	f7fe ffd6 	bl	8002820 <vListInsertEnd>
 8003874:	e007      	b.n	8003886 <vTaskPlaceOnEventList+0x62>
 8003876:	4b08      	ldr	r3, [pc, #32]	; (8003898 <vTaskPlaceOnEventList+0x74>)
 8003878:	681a      	ldr	r2, [r3, #0]
 800387a:	683b      	ldr	r3, [r7, #0]
 800387c:	18d3      	adds	r3, r2, r3
 800387e:	60fb      	str	r3, [r7, #12]
 8003880:	68f8      	ldr	r0, [r7, #12]
 8003882:	f000 f9ed 	bl	8003c60 <prvAddCurrentTaskToDelayedList>
 8003886:	f107 0710 	add.w	r7, r7, #16
 800388a:	46bd      	mov	sp, r7
 800388c:	bd80      	pop	{r7, pc}
 800388e:	bf00      	nop
 8003890:	2000c84c 	.word	0x2000c84c
 8003894:	2000c910 	.word	0x2000c910
 8003898:	2000c928 	.word	0x2000c928

0800389c <vTaskPlaceOnEventListRestricted>:
 800389c:	b580      	push	{r7, lr}
 800389e:	b084      	sub	sp, #16
 80038a0:	af00      	add	r7, sp, #0
 80038a2:	6078      	str	r0, [r7, #4]
 80038a4:	6039      	str	r1, [r7, #0]
 80038a6:	687b      	ldr	r3, [r7, #4]
 80038a8:	2b00      	cmp	r3, #0
 80038aa:	d104      	bne.n	80038b6 <vTaskPlaceOnEventListRestricted+0x1a>
 80038ac:	f04f 0050 	mov.w	r0, #80	; 0x50
 80038b0:	f380 8811 	msr	BASEPRI, r0
 80038b4:	e7fe      	b.n	80038b4 <vTaskPlaceOnEventListRestricted+0x18>
 80038b6:	4b0d      	ldr	r3, [pc, #52]	; (80038ec <vTaskPlaceOnEventListRestricted+0x50>)
 80038b8:	681b      	ldr	r3, [r3, #0]
 80038ba:	f103 0318 	add.w	r3, r3, #24
 80038be:	6878      	ldr	r0, [r7, #4]
 80038c0:	4619      	mov	r1, r3
 80038c2:	f7fe ffad 	bl	8002820 <vListInsertEnd>
 80038c6:	4b09      	ldr	r3, [pc, #36]	; (80038ec <vTaskPlaceOnEventListRestricted+0x50>)
 80038c8:	681b      	ldr	r3, [r3, #0]
 80038ca:	f103 0304 	add.w	r3, r3, #4
 80038ce:	4618      	mov	r0, r3
 80038d0:	f7ff f808 	bl	80028e4 <vListRemove>
 80038d4:	4b06      	ldr	r3, [pc, #24]	; (80038f0 <vTaskPlaceOnEventListRestricted+0x54>)
 80038d6:	681a      	ldr	r2, [r3, #0]
 80038d8:	683b      	ldr	r3, [r7, #0]
 80038da:	18d3      	adds	r3, r2, r3
 80038dc:	60fb      	str	r3, [r7, #12]
 80038de:	68f8      	ldr	r0, [r7, #12]
 80038e0:	f000 f9be 	bl	8003c60 <prvAddCurrentTaskToDelayedList>
 80038e4:	f107 0710 	add.w	r7, r7, #16
 80038e8:	46bd      	mov	sp, r7
 80038ea:	bd80      	pop	{r7, pc}
 80038ec:	2000c84c 	.word	0x2000c84c
 80038f0:	2000c928 	.word	0x2000c928

080038f4 <xTaskRemoveFromEventList>:
 80038f4:	b580      	push	{r7, lr}
 80038f6:	b084      	sub	sp, #16
 80038f8:	af00      	add	r7, sp, #0
 80038fa:	6078      	str	r0, [r7, #4]
 80038fc:	687b      	ldr	r3, [r7, #4]
 80038fe:	68db      	ldr	r3, [r3, #12]
 8003900:	68db      	ldr	r3, [r3, #12]
 8003902:	60bb      	str	r3, [r7, #8]
 8003904:	68bb      	ldr	r3, [r7, #8]
 8003906:	2b00      	cmp	r3, #0
 8003908:	d104      	bne.n	8003914 <xTaskRemoveFromEventList+0x20>
 800390a:	f04f 0050 	mov.w	r0, #80	; 0x50
 800390e:	f380 8811 	msr	BASEPRI, r0
 8003912:	e7fe      	b.n	8003912 <xTaskRemoveFromEventList+0x1e>
 8003914:	68bb      	ldr	r3, [r7, #8]
 8003916:	f103 0318 	add.w	r3, r3, #24
 800391a:	4618      	mov	r0, r3
 800391c:	f7fe ffe2 	bl	80028e4 <vListRemove>
 8003920:	4b20      	ldr	r3, [pc, #128]	; (80039a4 <xTaskRemoveFromEventList+0xb0>)
 8003922:	681b      	ldr	r3, [r3, #0]
 8003924:	2b00      	cmp	r3, #0
 8003926:	d122      	bne.n	800396e <xTaskRemoveFromEventList+0x7a>
 8003928:	68bb      	ldr	r3, [r7, #8]
 800392a:	f103 0304 	add.w	r3, r3, #4
 800392e:	4618      	mov	r0, r3
 8003930:	f7fe ffd8 	bl	80028e4 <vListRemove>
 8003934:	68bb      	ldr	r3, [r7, #8]
 8003936:	6ada      	ldr	r2, [r3, #44]	; 0x2c
 8003938:	4b1b      	ldr	r3, [pc, #108]	; (80039a8 <xTaskRemoveFromEventList+0xb4>)
 800393a:	681b      	ldr	r3, [r3, #0]
 800393c:	429a      	cmp	r2, r3
 800393e:	d903      	bls.n	8003948 <xTaskRemoveFromEventList+0x54>
 8003940:	68bb      	ldr	r3, [r7, #8]
 8003942:	6ada      	ldr	r2, [r3, #44]	; 0x2c
 8003944:	4b18      	ldr	r3, [pc, #96]	; (80039a8 <xTaskRemoveFromEventList+0xb4>)
 8003946:	601a      	str	r2, [r3, #0]
 8003948:	68bb      	ldr	r3, [r7, #8]
 800394a:	6ada      	ldr	r2, [r3, #44]	; 0x2c
 800394c:	4613      	mov	r3, r2
 800394e:	ea4f 0383 	mov.w	r3, r3, lsl #2
 8003952:	189b      	adds	r3, r3, r2
 8003954:	ea4f 0383 	mov.w	r3, r3, lsl #2
 8003958:	461a      	mov	r2, r3
 800395a:	4b14      	ldr	r3, [pc, #80]	; (80039ac <xTaskRemoveFromEventList+0xb8>)
 800395c:	18d2      	adds	r2, r2, r3
 800395e:	68bb      	ldr	r3, [r7, #8]
 8003960:	f103 0304 	add.w	r3, r3, #4
 8003964:	4610      	mov	r0, r2
 8003966:	4619      	mov	r1, r3
 8003968:	f7fe ff5a 	bl	8002820 <vListInsertEnd>
 800396c:	e006      	b.n	800397c <xTaskRemoveFromEventList+0x88>
 800396e:	68bb      	ldr	r3, [r7, #8]
 8003970:	f103 0318 	add.w	r3, r3, #24
 8003974:	480e      	ldr	r0, [pc, #56]	; (80039b0 <xTaskRemoveFromEventList+0xbc>)
 8003976:	4619      	mov	r1, r3
 8003978:	f7fe ff52 	bl	8002820 <vListInsertEnd>
 800397c:	68bb      	ldr	r3, [r7, #8]
 800397e:	6ada      	ldr	r2, [r3, #44]	; 0x2c
 8003980:	4b0c      	ldr	r3, [pc, #48]	; (80039b4 <xTaskRemoveFromEventList+0xc0>)
 8003982:	681b      	ldr	r3, [r3, #0]
 8003984:	6adb      	ldr	r3, [r3, #44]	; 0x2c
 8003986:	429a      	cmp	r2, r3
 8003988:	d303      	bcc.n	8003992 <xTaskRemoveFromEventList+0x9e>
 800398a:	f04f 0301 	mov.w	r3, #1
 800398e:	60fb      	str	r3, [r7, #12]
 8003990:	e002      	b.n	8003998 <xTaskRemoveFromEventList+0xa4>
 8003992:	f04f 0300 	mov.w	r3, #0
 8003996:	60fb      	str	r3, [r7, #12]
 8003998:	68fb      	ldr	r3, [r7, #12]
 800399a:	4618      	mov	r0, r3
 800399c:	f107 0710 	add.w	r7, r7, #16
 80039a0:	46bd      	mov	sp, r7
 80039a2:	bd80      	pop	{r7, pc}
 80039a4:	2000c938 	.word	0x2000c938
 80039a8:	2000c930 	.word	0x2000c930
 80039ac:	2000c850 	.word	0x2000c850
 80039b0:	2000c8e4 	.word	0x2000c8e4
 80039b4:	2000c84c 	.word	0x2000c84c

080039b8 <vTaskSetTimeOutState>:
 80039b8:	b480      	push	{r7}
 80039ba:	b083      	sub	sp, #12
 80039bc:	af00      	add	r7, sp, #0
 80039be:	6078      	str	r0, [r7, #4]
 80039c0:	687b      	ldr	r3, [r7, #4]
 80039c2:	2b00      	cmp	r3, #0
 80039c4:	d104      	bne.n	80039d0 <vTaskSetTimeOutState+0x18>
 80039c6:	f04f 0050 	mov.w	r0, #80	; 0x50
 80039ca:	f380 8811 	msr	BASEPRI, r0
 80039ce:	e7fe      	b.n	80039ce <vTaskSetTimeOutState+0x16>
 80039d0:	4b06      	ldr	r3, [pc, #24]	; (80039ec <vTaskSetTimeOutState+0x34>)
 80039d2:	681a      	ldr	r2, [r3, #0]
 80039d4:	687b      	ldr	r3, [r7, #4]
 80039d6:	601a      	str	r2, [r3, #0]
 80039d8:	4b05      	ldr	r3, [pc, #20]	; (80039f0 <vTaskSetTimeOutState+0x38>)
 80039da:	681a      	ldr	r2, [r3, #0]
 80039dc:	687b      	ldr	r3, [r7, #4]
 80039de:	605a      	str	r2, [r3, #4]
 80039e0:	f107 070c 	add.w	r7, r7, #12
 80039e4:	46bd      	mov	sp, r7
 80039e6:	bc80      	pop	{r7}
 80039e8:	4770      	bx	lr
 80039ea:	bf00      	nop
 80039ec:	2000c944 	.word	0x2000c944
 80039f0:	2000c928 	.word	0x2000c928

080039f4 <xTaskCheckForTimeOut>:
 80039f4:	b580      	push	{r7, lr}
 80039f6:	b084      	sub	sp, #16
 80039f8:	af00      	add	r7, sp, #0
 80039fa:	6078      	str	r0, [r7, #4]
 80039fc:	6039      	str	r1, [r7, #0]
 80039fe:	687b      	ldr	r3, [r7, #4]
 8003a00:	2b00      	cmp	r3, #0
 8003a02:	d104      	bne.n	8003a0e <xTaskCheckForTimeOut+0x1a>
 8003a04:	f04f 0050 	mov.w	r0, #80	; 0x50
 8003a08:	f380 8811 	msr	BASEPRI, r0
 8003a0c:	e7fe      	b.n	8003a0c <xTaskCheckForTimeOut+0x18>
 8003a0e:	683b      	ldr	r3, [r7, #0]
 8003a10:	2b00      	cmp	r3, #0
 8003a12:	d104      	bne.n	8003a1e <xTaskCheckForTimeOut+0x2a>
 8003a14:	f04f 0050 	mov.w	r0, #80	; 0x50
 8003a18:	f380 8811 	msr	BASEPRI, r0
 8003a1c:	e7fe      	b.n	8003a1c <xTaskCheckForTimeOut+0x28>
 8003a1e:	f7fe fe5b 	bl	80026d8 <vPortEnterCritical>
 8003a22:	683b      	ldr	r3, [r7, #0]
 8003a24:	681b      	ldr	r3, [r3, #0]
 8003a26:	f1b3 3fff 	cmp.w	r3, #4294967295
 8003a2a:	d103      	bne.n	8003a34 <xTaskCheckForTimeOut+0x40>
 8003a2c:	f04f 0300 	mov.w	r3, #0
 8003a30:	60fb      	str	r3, [r7, #12]
 8003a32:	e02c      	b.n	8003a8e <xTaskCheckForTimeOut+0x9a>
 8003a34:	687b      	ldr	r3, [r7, #4]
 8003a36:	681a      	ldr	r2, [r3, #0]
 8003a38:	4b19      	ldr	r3, [pc, #100]	; (8003aa0 <xTaskCheckForTimeOut+0xac>)
 8003a3a:	681b      	ldr	r3, [r3, #0]
 8003a3c:	429a      	cmp	r2, r3
 8003a3e:	d009      	beq.n	8003a54 <xTaskCheckForTimeOut+0x60>
 8003a40:	687b      	ldr	r3, [r7, #4]
 8003a42:	685a      	ldr	r2, [r3, #4]
 8003a44:	4b17      	ldr	r3, [pc, #92]	; (8003aa4 <xTaskCheckForTimeOut+0xb0>)
 8003a46:	681b      	ldr	r3, [r3, #0]
 8003a48:	429a      	cmp	r2, r3
 8003a4a:	d803      	bhi.n	8003a54 <xTaskCheckForTimeOut+0x60>
 8003a4c:	f04f 0301 	mov.w	r3, #1
 8003a50:	60fb      	str	r3, [r7, #12]
 8003a52:	e01c      	b.n	8003a8e <xTaskCheckForTimeOut+0x9a>
 8003a54:	4b13      	ldr	r3, [pc, #76]	; (8003aa4 <xTaskCheckForTimeOut+0xb0>)
 8003a56:	681a      	ldr	r2, [r3, #0]
 8003a58:	687b      	ldr	r3, [r7, #4]
 8003a5a:	685b      	ldr	r3, [r3, #4]
 8003a5c:	1ad2      	subs	r2, r2, r3
 8003a5e:	683b      	ldr	r3, [r7, #0]
 8003a60:	681b      	ldr	r3, [r3, #0]
 8003a62:	429a      	cmp	r2, r3
 8003a64:	d210      	bcs.n	8003a88 <xTaskCheckForTimeOut+0x94>
 8003a66:	683b      	ldr	r3, [r7, #0]
 8003a68:	681a      	ldr	r2, [r3, #0]
 8003a6a:	687b      	ldr	r3, [r7, #4]
 8003a6c:	6859      	ldr	r1, [r3, #4]
 8003a6e:	4b0d      	ldr	r3, [pc, #52]	; (8003aa4 <xTaskCheckForTimeOut+0xb0>)
 8003a70:	681b      	ldr	r3, [r3, #0]
 8003a72:	1acb      	subs	r3, r1, r3
 8003a74:	18d2      	adds	r2, r2, r3
 8003a76:	683b      	ldr	r3, [r7, #0]
 8003a78:	601a      	str	r2, [r3, #0]
 8003a7a:	6878      	ldr	r0, [r7, #4]
 8003a7c:	f7ff ff9c 	bl	80039b8 <vTaskSetTimeOutState>
 8003a80:	f04f 0300 	mov.w	r3, #0
 8003a84:	60fb      	str	r3, [r7, #12]
 8003a86:	e002      	b.n	8003a8e <xTaskCheckForTimeOut+0x9a>
 8003a88:	f04f 0301 	mov.w	r3, #1
 8003a8c:	60fb      	str	r3, [r7, #12]
 8003a8e:	f7fe fe35 	bl	80026fc <vPortExitCritical>
 8003a92:	68fb      	ldr	r3, [r7, #12]
 8003a94:	4618      	mov	r0, r3
 8003a96:	f107 0710 	add.w	r7, r7, #16
 8003a9a:	46bd      	mov	sp, r7
 8003a9c:	bd80      	pop	{r7, pc}
 8003a9e:	bf00      	nop
 8003aa0:	2000c944 	.word	0x2000c944
 8003aa4:	2000c928 	.word	0x2000c928

08003aa8 <vTaskMissedYield>:
 8003aa8:	b480      	push	{r7}
 8003aaa:	af00      	add	r7, sp, #0
 8003aac:	4b03      	ldr	r3, [pc, #12]	; (8003abc <vTaskMissedYield+0x14>)
 8003aae:	f04f 0201 	mov.w	r2, #1
 8003ab2:	601a      	str	r2, [r3, #0]
 8003ab4:	46bd      	mov	sp, r7
 8003ab6:	bc80      	pop	{r7}
 8003ab8:	4770      	bx	lr
 8003aba:	bf00      	nop
 8003abc:	2000c940 	.word	0x2000c940

08003ac0 <prvIdleTask>:
 8003ac0:	b580      	push	{r7, lr}
 8003ac2:	b082      	sub	sp, #8
 8003ac4:	af00      	add	r7, sp, #0
 8003ac6:	6078      	str	r0, [r7, #4]
 8003ac8:	f000 f88c 	bl	8003be4 <prvCheckTasksWaitingTermination>
 8003acc:	4b04      	ldr	r3, [pc, #16]	; (8003ae0 <prvIdleTask+0x20>)
 8003ace:	681b      	ldr	r3, [r3, #0]
 8003ad0:	2b01      	cmp	r3, #1
 8003ad2:	d901      	bls.n	8003ad8 <prvIdleTask+0x18>
 8003ad4:	f7fe fdf4 	bl	80026c0 <vPortYieldFromISR>
 8003ad8:	f7fd f8ec 	bl	8000cb4 <vApplicationIdleHook>
 8003adc:	e7f4      	b.n	8003ac8 <prvIdleTask+0x8>
 8003ade:	bf00      	nop
 8003ae0:	2000c850 	.word	0x2000c850

08003ae4 <prvInitialiseTCBVariables>:
 8003ae4:	b580      	push	{r7, lr}
 8003ae6:	b084      	sub	sp, #16
 8003ae8:	af00      	add	r7, sp, #0
 8003aea:	60f8      	str	r0, [r7, #12]
 8003aec:	60b9      	str	r1, [r7, #8]
 8003aee:	607a      	str	r2, [r7, #4]
 8003af0:	603b      	str	r3, [r7, #0]
 8003af2:	68fb      	ldr	r3, [r7, #12]
 8003af4:	f103 0334 	add.w	r3, r3, #52	; 0x34
 8003af8:	461a      	mov	r2, r3
 8003afa:	68bb      	ldr	r3, [r7, #8]
 8003afc:	4610      	mov	r0, r2
 8003afe:	4619      	mov	r1, r3
 8003b00:	f04f 020a 	mov.w	r2, #10
 8003b04:	f7fc fcb4 	bl	8000470 <strncpy>
 8003b08:	68fb      	ldr	r3, [r7, #12]
 8003b0a:	f04f 0200 	mov.w	r2, #0
 8003b0e:	f883 203d 	strb.w	r2, [r3, #61]	; 0x3d
 8003b12:	687b      	ldr	r3, [r7, #4]
 8003b14:	2b04      	cmp	r3, #4
 8003b16:	d902      	bls.n	8003b1e <prvInitialiseTCBVariables+0x3a>
 8003b18:	f04f 0304 	mov.w	r3, #4
 8003b1c:	607b      	str	r3, [r7, #4]
 8003b1e:	68fb      	ldr	r3, [r7, #12]
 8003b20:	687a      	ldr	r2, [r7, #4]
 8003b22:	62da      	str	r2, [r3, #44]	; 0x2c
 8003b24:	68fb      	ldr	r3, [r7, #12]
 8003b26:	f103 0304 	add.w	r3, r3, #4
 8003b2a:	4618      	mov	r0, r3
 8003b2c:	f7fe fe6a 	bl	8002804 <vListInitialiseItem>
 8003b30:	68fb      	ldr	r3, [r7, #12]
 8003b32:	f103 0318 	add.w	r3, r3, #24
 8003b36:	4618      	mov	r0, r3
 8003b38:	f7fe fe64 	bl	8002804 <vListInitialiseItem>
 8003b3c:	68fb      	ldr	r3, [r7, #12]
 8003b3e:	68fa      	ldr	r2, [r7, #12]
 8003b40:	611a      	str	r2, [r3, #16]
 8003b42:	687b      	ldr	r3, [r7, #4]
 8003b44:	f1c3 0205 	rsb	r2, r3, #5
 8003b48:	68fb      	ldr	r3, [r7, #12]
 8003b4a:	619a      	str	r2, [r3, #24]
 8003b4c:	68fb      	ldr	r3, [r7, #12]
 8003b4e:	68fa      	ldr	r2, [r7, #12]
 8003b50:	625a      	str	r2, [r3, #36]	; 0x24
 8003b52:	f107 0710 	add.w	r7, r7, #16
 8003b56:	46bd      	mov	sp, r7
 8003b58:	bd80      	pop	{r7, pc}
 8003b5a:	bf00      	nop

08003b5c <prvInitialiseTaskLists>:
 8003b5c:	b580      	push	{r7, lr}
 8003b5e:	b082      	sub	sp, #8
 8003b60:	af00      	add	r7, sp, #0
 8003b62:	f04f 0300 	mov.w	r3, #0
 8003b66:	607b      	str	r3, [r7, #4]
 8003b68:	e010      	b.n	8003b8c <prvInitialiseTaskLists+0x30>
 8003b6a:	687a      	ldr	r2, [r7, #4]
 8003b6c:	4613      	mov	r3, r2
 8003b6e:	ea4f 0383 	mov.w	r3, r3, lsl #2
 8003b72:	189b      	adds	r3, r3, r2
 8003b74:	ea4f 0383 	mov.w	r3, r3, lsl #2
 8003b78:	461a      	mov	r2, r3
 8003b7a:	4b12      	ldr	r3, [pc, #72]	; (8003bc4 <prvInitialiseTaskLists+0x68>)
 8003b7c:	18d3      	adds	r3, r2, r3
 8003b7e:	4618      	mov	r0, r3
 8003b80:	f7fe fe1c 	bl	80027bc <vListInitialise>
 8003b84:	687b      	ldr	r3, [r7, #4]
 8003b86:	f103 0301 	add.w	r3, r3, #1
 8003b8a:	607b      	str	r3, [r7, #4]
 8003b8c:	687b      	ldr	r3, [r7, #4]
 8003b8e:	2b04      	cmp	r3, #4
 8003b90:	d9eb      	bls.n	8003b6a <prvInitialiseTaskLists+0xe>
 8003b92:	480d      	ldr	r0, [pc, #52]	; (8003bc8 <prvInitialiseTaskLists+0x6c>)
 8003b94:	f7fe fe12 	bl	80027bc <vListInitialise>
 8003b98:	480c      	ldr	r0, [pc, #48]	; (8003bcc <prvInitialiseTaskLists+0x70>)
 8003b9a:	f7fe fe0f 	bl	80027bc <vListInitialise>
 8003b9e:	480c      	ldr	r0, [pc, #48]	; (8003bd0 <prvInitialiseTaskLists+0x74>)
 8003ba0:	f7fe fe0c 	bl	80027bc <vListInitialise>
 8003ba4:	480b      	ldr	r0, [pc, #44]	; (8003bd4 <prvInitialiseTaskLists+0x78>)
 8003ba6:	f7fe fe09 	bl	80027bc <vListInitialise>
 8003baa:	480b      	ldr	r0, [pc, #44]	; (8003bd8 <prvInitialiseTaskLists+0x7c>)
 8003bac:	f7fe fe06 	bl	80027bc <vListInitialise>
 8003bb0:	4b0a      	ldr	r3, [pc, #40]	; (8003bdc <prvInitialiseTaskLists+0x80>)
 8003bb2:	4a05      	ldr	r2, [pc, #20]	; (8003bc8 <prvInitialiseTaskLists+0x6c>)
 8003bb4:	601a      	str	r2, [r3, #0]
 8003bb6:	4b0a      	ldr	r3, [pc, #40]	; (8003be0 <prvInitialiseTaskLists+0x84>)
 8003bb8:	4a04      	ldr	r2, [pc, #16]	; (8003bcc <prvInitialiseTaskLists+0x70>)
 8003bba:	601a      	str	r2, [r3, #0]
 8003bbc:	f107 0708 	add.w	r7, r7, #8
 8003bc0:	46bd      	mov	sp, r7
 8003bc2:	bd80      	pop	{r7, pc}
 8003bc4:	2000c850 	.word	0x2000c850
 8003bc8:	2000c8b4 	.word	0x2000c8b4
 8003bcc:	2000c8c8 	.word	0x2000c8c8
 8003bd0:	2000c8e4 	.word	0x2000c8e4
 8003bd4:	2000c8f8 	.word	0x2000c8f8
 8003bd8:	2000c910 	.word	0x2000c910
 8003bdc:	2000c8dc 	.word	0x2000c8dc
 8003be0:	2000c8e0 	.word	0x2000c8e0

08003be4 <prvCheckTasksWaitingTermination>:
 8003be4:	b580      	push	{r7, lr}
 8003be6:	b082      	sub	sp, #8
 8003be8:	af00      	add	r7, sp, #0
 8003bea:	4b19      	ldr	r3, [pc, #100]	; (8003c50 <prvCheckTasksWaitingTermination+0x6c>)
 8003bec:	681b      	ldr	r3, [r3, #0]
 8003bee:	2b00      	cmp	r3, #0
 8003bf0:	d02a      	beq.n	8003c48 <prvCheckTasksWaitingTermination+0x64>
 8003bf2:	f7ff fc31 	bl	8003458 <vTaskSuspendAll>
 8003bf6:	4b17      	ldr	r3, [pc, #92]	; (8003c54 <prvCheckTasksWaitingTermination+0x70>)
 8003bf8:	681b      	ldr	r3, [r3, #0]
 8003bfa:	2b00      	cmp	r3, #0
 8003bfc:	bf14      	ite	ne
 8003bfe:	2300      	movne	r3, #0
 8003c00:	2301      	moveq	r3, #1
 8003c02:	607b      	str	r3, [r7, #4]
 8003c04:	f7ff fc36 	bl	8003474 <xTaskResumeAll>
 8003c08:	687b      	ldr	r3, [r7, #4]
 8003c0a:	2b00      	cmp	r3, #0
 8003c0c:	d11c      	bne.n	8003c48 <prvCheckTasksWaitingTermination+0x64>
 8003c0e:	f7fe fd63 	bl	80026d8 <vPortEnterCritical>
 8003c12:	4b11      	ldr	r3, [pc, #68]	; (8003c58 <prvCheckTasksWaitingTermination+0x74>)
 8003c14:	685b      	ldr	r3, [r3, #4]
 8003c16:	68db      	ldr	r3, [r3, #12]
 8003c18:	603b      	str	r3, [r7, #0]
 8003c1a:	683b      	ldr	r3, [r7, #0]
 8003c1c:	f103 0304 	add.w	r3, r3, #4
 8003c20:	4618      	mov	r0, r3
 8003c22:	f7fe fe5f 	bl	80028e4 <vListRemove>
 8003c26:	4b0d      	ldr	r3, [pc, #52]	; (8003c5c <prvCheckTasksWaitingTermination+0x78>)
 8003c28:	681b      	ldr	r3, [r3, #0]
 8003c2a:	f103 32ff 	add.w	r2, r3, #4294967295
 8003c2e:	4b0b      	ldr	r3, [pc, #44]	; (8003c5c <prvCheckTasksWaitingTermination+0x78>)
 8003c30:	601a      	str	r2, [r3, #0]
 8003c32:	4b07      	ldr	r3, [pc, #28]	; (8003c50 <prvCheckTasksWaitingTermination+0x6c>)
 8003c34:	681b      	ldr	r3, [r3, #0]
 8003c36:	f103 32ff 	add.w	r2, r3, #4294967295
 8003c3a:	4b05      	ldr	r3, [pc, #20]	; (8003c50 <prvCheckTasksWaitingTermination+0x6c>)
 8003c3c:	601a      	str	r2, [r3, #0]
 8003c3e:	f7fe fd5d 	bl	80026fc <vPortExitCritical>
 8003c42:	6838      	ldr	r0, [r7, #0]
 8003c44:	f000 f87e 	bl	8003d44 <prvDeleteTCB>
 8003c48:	f107 0708 	add.w	r7, r7, #8
 8003c4c:	46bd      	mov	sp, r7
 8003c4e:	bd80      	pop	{r7, pc}
 8003c50:	2000c90c 	.word	0x2000c90c
 8003c54:	2000c8f8 	.word	0x2000c8f8
 8003c58:	2000c900 	.word	0x2000c900
 8003c5c:	2000c924 	.word	0x2000c924

08003c60 <prvAddCurrentTaskToDelayedList>:
 8003c60:	b580      	push	{r7, lr}
 8003c62:	b082      	sub	sp, #8
 8003c64:	af00      	add	r7, sp, #0
 8003c66:	6078      	str	r0, [r7, #4]
 8003c68:	4b14      	ldr	r3, [pc, #80]	; (8003cbc <prvAddCurrentTaskToDelayedList+0x5c>)
 8003c6a:	681b      	ldr	r3, [r3, #0]
 8003c6c:	687a      	ldr	r2, [r7, #4]
 8003c6e:	605a      	str	r2, [r3, #4]
 8003c70:	4b13      	ldr	r3, [pc, #76]	; (8003cc0 <prvAddCurrentTaskToDelayedList+0x60>)
 8003c72:	681b      	ldr	r3, [r3, #0]
 8003c74:	687a      	ldr	r2, [r7, #4]
 8003c76:	429a      	cmp	r2, r3
 8003c78:	d20a      	bcs.n	8003c90 <prvAddCurrentTaskToDelayedList+0x30>
 8003c7a:	4b12      	ldr	r3, [pc, #72]	; (8003cc4 <prvAddCurrentTaskToDelayedList+0x64>)
 8003c7c:	681a      	ldr	r2, [r3, #0]
 8003c7e:	4b0f      	ldr	r3, [pc, #60]	; (8003cbc <prvAddCurrentTaskToDelayedList+0x5c>)
 8003c80:	681b      	ldr	r3, [r3, #0]
 8003c82:	f103 0304 	add.w	r3, r3, #4
 8003c86:	4610      	mov	r0, r2
 8003c88:	4619      	mov	r1, r3
 8003c8a:	f7fe fdf1 	bl	8002870 <vListInsert>
 8003c8e:	e011      	b.n	8003cb4 <prvAddCurrentTaskToDelayedList+0x54>
 8003c90:	4b0d      	ldr	r3, [pc, #52]	; (8003cc8 <prvAddCurrentTaskToDelayedList+0x68>)
 8003c92:	681a      	ldr	r2, [r3, #0]
 8003c94:	4b09      	ldr	r3, [pc, #36]	; (8003cbc <prvAddCurrentTaskToDelayedList+0x5c>)
 8003c96:	681b      	ldr	r3, [r3, #0]
 8003c98:	f103 0304 	add.w	r3, r3, #4
 8003c9c:	4610      	mov	r0, r2
 8003c9e:	4619      	mov	r1, r3
 8003ca0:	f7fe fde6 	bl	8002870 <vListInsert>
 8003ca4:	4b09      	ldr	r3, [pc, #36]	; (8003ccc <prvAddCurrentTaskToDelayedList+0x6c>)
 8003ca6:	681b      	ldr	r3, [r3, #0]
 8003ca8:	687a      	ldr	r2, [r7, #4]
 8003caa:	429a      	cmp	r2, r3
 8003cac:	d202      	bcs.n	8003cb4 <prvAddCurrentTaskToDelayedList+0x54>
 8003cae:	4b07      	ldr	r3, [pc, #28]	; (8003ccc <prvAddCurrentTaskToDelayedList+0x6c>)
 8003cb0:	687a      	ldr	r2, [r7, #4]
 8003cb2:	601a      	str	r2, [r3, #0]
 8003cb4:	f107 0708 	add.w	r7, r7, #8
 8003cb8:	46bd      	mov	sp, r7
 8003cba:	bd80      	pop	{r7, pc}
 8003cbc:	2000c84c 	.word	0x2000c84c
 8003cc0:	2000c928 	.word	0x2000c928
 8003cc4:	2000c8e0 	.word	0x2000c8e0
 8003cc8:	2000c8dc 	.word	0x2000c8dc
 8003ccc:	20000024 	.word	0x20000024

08003cd0 <prvAllocateTCBAndStack>:
 8003cd0:	b580      	push	{r7, lr}
 8003cd2:	b084      	sub	sp, #16
 8003cd4:	af00      	add	r7, sp, #0
 8003cd6:	4603      	mov	r3, r0
 8003cd8:	6039      	str	r1, [r7, #0]
 8003cda:	80fb      	strh	r3, [r7, #6]
 8003cdc:	f04f 0040 	mov.w	r0, #64	; 0x40
 8003ce0:	f7fe fb90 	bl	8002404 <pvPortMalloc>
 8003ce4:	4603      	mov	r3, r0
 8003ce6:	60fb      	str	r3, [r7, #12]
 8003ce8:	68fb      	ldr	r3, [r7, #12]
 8003cea:	2b00      	cmp	r3, #0
 8003cec:	d023      	beq.n	8003d36 <prvAllocateTCBAndStack+0x66>
 8003cee:	683b      	ldr	r3, [r7, #0]
 8003cf0:	2b00      	cmp	r3, #0
 8003cf2:	d107      	bne.n	8003d04 <prvAllocateTCBAndStack+0x34>
 8003cf4:	88fb      	ldrh	r3, [r7, #6]
 8003cf6:	ea4f 0383 	mov.w	r3, r3, lsl #2
 8003cfa:	4618      	mov	r0, r3
 8003cfc:	f7fe fb82 	bl	8002404 <pvPortMalloc>
 8003d00:	4603      	mov	r3, r0
 8003d02:	e000      	b.n	8003d06 <prvAllocateTCBAndStack+0x36>
 8003d04:	683b      	ldr	r3, [r7, #0]
 8003d06:	68fa      	ldr	r2, [r7, #12]
 8003d08:	6313      	str	r3, [r2, #48]	; 0x30
 8003d0a:	68fb      	ldr	r3, [r7, #12]
 8003d0c:	6b1b      	ldr	r3, [r3, #48]	; 0x30
 8003d0e:	2b00      	cmp	r3, #0
 8003d10:	d106      	bne.n	8003d20 <prvAllocateTCBAndStack+0x50>
 8003d12:	68f8      	ldr	r0, [r7, #12]
 8003d14:	f7fe fc24 	bl	8002560 <vPortFree>
 8003d18:	f04f 0300 	mov.w	r3, #0
 8003d1c:	60fb      	str	r3, [r7, #12]
 8003d1e:	e00a      	b.n	8003d36 <prvAllocateTCBAndStack+0x66>
 8003d20:	68fb      	ldr	r3, [r7, #12]
 8003d22:	6b1a      	ldr	r2, [r3, #48]	; 0x30
 8003d24:	88fb      	ldrh	r3, [r7, #6]
 8003d26:	ea4f 0383 	mov.w	r3, r3, lsl #2
 8003d2a:	4610      	mov	r0, r2
 8003d2c:	f04f 01a5 	mov.w	r1, #165	; 0xa5
 8003d30:	461a      	mov	r2, r3
 8003d32:	f7fc fb43 	bl	80003bc <memset>
 8003d36:	68fb      	ldr	r3, [r7, #12]
 8003d38:	4618      	mov	r0, r3
 8003d3a:	f107 0710 	add.w	r7, r7, #16
 8003d3e:	46bd      	mov	sp, r7
 8003d40:	bd80      	pop	{r7, pc}
 8003d42:	bf00      	nop

08003d44 <prvDeleteTCB>:
 8003d44:	b580      	push	{r7, lr}
 8003d46:	b082      	sub	sp, #8
 8003d48:	af00      	add	r7, sp, #0
 8003d4a:	6078      	str	r0, [r7, #4]
 8003d4c:	687b      	ldr	r3, [r7, #4]
 8003d4e:	6b1b      	ldr	r3, [r3, #48]	; 0x30
 8003d50:	4618      	mov	r0, r3
 8003d52:	f7fe fc05 	bl	8002560 <vPortFree>
 8003d56:	6878      	ldr	r0, [r7, #4]
 8003d58:	f7fe fc02 	bl	8002560 <vPortFree>
 8003d5c:	f107 0708 	add.w	r7, r7, #8
 8003d60:	46bd      	mov	sp, r7
 8003d62:	bd80      	pop	{r7, pc}

08003d64 <xTaskGetSchedulerState>:
 8003d64:	b480      	push	{r7}
 8003d66:	b083      	sub	sp, #12
 8003d68:	af00      	add	r7, sp, #0
 8003d6a:	4b0d      	ldr	r3, [pc, #52]	; (8003da0 <xTaskGetSchedulerState+0x3c>)
 8003d6c:	681b      	ldr	r3, [r3, #0]
 8003d6e:	2b00      	cmp	r3, #0
 8003d70:	d103      	bne.n	8003d7a <xTaskGetSchedulerState+0x16>
 8003d72:	f04f 0300 	mov.w	r3, #0
 8003d76:	607b      	str	r3, [r7, #4]
 8003d78:	e00a      	b.n	8003d90 <xTaskGetSchedulerState+0x2c>
 8003d7a:	4b0a      	ldr	r3, [pc, #40]	; (8003da4 <xTaskGetSchedulerState+0x40>)
 8003d7c:	681b      	ldr	r3, [r3, #0]
 8003d7e:	2b00      	cmp	r3, #0
 8003d80:	d103      	bne.n	8003d8a <xTaskGetSchedulerState+0x26>
 8003d82:	f04f 0301 	mov.w	r3, #1
 8003d86:	607b      	str	r3, [r7, #4]
 8003d88:	e002      	b.n	8003d90 <xTaskGetSchedulerState+0x2c>
 8003d8a:	f04f 0302 	mov.w	r3, #2
 8003d8e:	607b      	str	r3, [r7, #4]
 8003d90:	687b      	ldr	r3, [r7, #4]
 8003d92:	4618      	mov	r0, r3
 8003d94:	f107 070c 	add.w	r7, r7, #12
 8003d98:	46bd      	mov	sp, r7
 8003d9a:	bc80      	pop	{r7}
 8003d9c:	4770      	bx	lr
 8003d9e:	bf00      	nop
 8003da0:	2000c934 	.word	0x2000c934
 8003da4:	2000c938 	.word	0x2000c938

08003da8 <xTimerCreateTimerTask>:
 8003da8:	b580      	push	{r7, lr}
 8003daa:	b086      	sub	sp, #24
 8003dac:	af04      	add	r7, sp, #16
 8003dae:	f04f 0300 	mov.w	r3, #0
 8003db2:	607b      	str	r3, [r7, #4]
 8003db4:	f000 fa86 	bl	80042c4 <prvCheckForValidListAndQueue>
 8003db8:	4b13      	ldr	r3, [pc, #76]	; (8003e08 <xTimerCreateTimerTask+0x60>)
 8003dba:	681b      	ldr	r3, [r3, #0]
 8003dbc:	2b00      	cmp	r3, #0
 8003dbe:	d015      	beq.n	8003dec <xTimerCreateTimerTask+0x44>
 8003dc0:	4b12      	ldr	r3, [pc, #72]	; (8003e0c <xTimerCreateTimerTask+0x64>)
 8003dc2:	f04f 0203 	mov.w	r2, #3
 8003dc6:	9200      	str	r2, [sp, #0]
 8003dc8:	f04f 0200 	mov.w	r2, #0
 8003dcc:	9201      	str	r2, [sp, #4]
 8003dce:	f04f 0200 	mov.w	r2, #0
 8003dd2:	9202      	str	r2, [sp, #8]
 8003dd4:	f04f 0200 	mov.w	r2, #0
 8003dd8:	9203      	str	r2, [sp, #12]
 8003dda:	480d      	ldr	r0, [pc, #52]	; (8003e10 <xTimerCreateTimerTask+0x68>)
 8003ddc:	4619      	mov	r1, r3
 8003dde:	f04f 02c8 	mov.w	r2, #200	; 0xc8
 8003de2:	f04f 0300 	mov.w	r3, #0
 8003de6:	f7ff f91b 	bl	8003020 <xTaskGenericCreate>
 8003dea:	6078      	str	r0, [r7, #4]
 8003dec:	687b      	ldr	r3, [r7, #4]
 8003dee:	2b00      	cmp	r3, #0
 8003df0:	d104      	bne.n	8003dfc <xTimerCreateTimerTask+0x54>
 8003df2:	f04f 0050 	mov.w	r0, #80	; 0x50
 8003df6:	f380 8811 	msr	BASEPRI, r0
 8003dfa:	e7fe      	b.n	8003dfa <xTimerCreateTimerTask+0x52>
 8003dfc:	687b      	ldr	r3, [r7, #4]
 8003dfe:	4618      	mov	r0, r3
 8003e00:	f107 0708 	add.w	r7, r7, #8
 8003e04:	46bd      	mov	sp, r7
 8003e06:	bd80      	pop	{r7, pc}
 8003e08:	2000c97c 	.word	0x2000c97c
 8003e0c:	08004358 	.word	0x08004358
 8003e10:	08003f2d 	.word	0x08003f2d

08003e14 <xTimerGenericCommand>:
 8003e14:	b580      	push	{r7, lr}
 8003e16:	b088      	sub	sp, #32
 8003e18:	af00      	add	r7, sp, #0
 8003e1a:	60f8      	str	r0, [r7, #12]
 8003e1c:	60b9      	str	r1, [r7, #8]
 8003e1e:	607a      	str	r2, [r7, #4]
 8003e20:	603b      	str	r3, [r7, #0]
 8003e22:	f04f 0300 	mov.w	r3, #0
 8003e26:	61fb      	str	r3, [r7, #28]
 8003e28:	4b1f      	ldr	r3, [pc, #124]	; (8003ea8 <xTimerGenericCommand+0x94>)
 8003e2a:	681b      	ldr	r3, [r3, #0]
 8003e2c:	2b00      	cmp	r3, #0
 8003e2e:	d034      	beq.n	8003e9a <xTimerGenericCommand+0x86>
 8003e30:	68bb      	ldr	r3, [r7, #8]
 8003e32:	613b      	str	r3, [r7, #16]
 8003e34:	687b      	ldr	r3, [r7, #4]
 8003e36:	617b      	str	r3, [r7, #20]
 8003e38:	68fb      	ldr	r3, [r7, #12]
 8003e3a:	61bb      	str	r3, [r7, #24]
 8003e3c:	683b      	ldr	r3, [r7, #0]
 8003e3e:	2b00      	cmp	r3, #0
 8003e40:	d11f      	bne.n	8003e82 <xTimerGenericCommand+0x6e>
 8003e42:	f7ff ff8f 	bl	8003d64 <xTaskGetSchedulerState>
 8003e46:	4603      	mov	r3, r0
 8003e48:	2b01      	cmp	r3, #1
 8003e4a:	d10c      	bne.n	8003e66 <xTimerGenericCommand+0x52>
 8003e4c:	4b16      	ldr	r3, [pc, #88]	; (8003ea8 <xTimerGenericCommand+0x94>)
 8003e4e:	681a      	ldr	r2, [r3, #0]
 8003e50:	f107 0310 	add.w	r3, r7, #16
 8003e54:	4610      	mov	r0, r2
 8003e56:	4619      	mov	r1, r3
 8003e58:	6aba      	ldr	r2, [r7, #40]	; 0x28
 8003e5a:	f04f 0300 	mov.w	r3, #0
 8003e5e:	f7fe fddb 	bl	8002a18 <xQueueGenericSend>
 8003e62:	61f8      	str	r0, [r7, #28]
 8003e64:	e019      	b.n	8003e9a <xTimerGenericCommand+0x86>
 8003e66:	4b10      	ldr	r3, [pc, #64]	; (8003ea8 <xTimerGenericCommand+0x94>)
 8003e68:	681a      	ldr	r2, [r3, #0]
 8003e6a:	f107 0310 	add.w	r3, r7, #16
 8003e6e:	4610      	mov	r0, r2
 8003e70:	4619      	mov	r1, r3
 8003e72:	f04f 0200 	mov.w	r2, #0
 8003e76:	f04f 0300 	mov.w	r3, #0
 8003e7a:	f7fe fdcd 	bl	8002a18 <xQueueGenericSend>
 8003e7e:	61f8      	str	r0, [r7, #28]
 8003e80:	e00b      	b.n	8003e9a <xTimerGenericCommand+0x86>
 8003e82:	4b09      	ldr	r3, [pc, #36]	; (8003ea8 <xTimerGenericCommand+0x94>)
 8003e84:	681a      	ldr	r2, [r3, #0]
 8003e86:	f107 0310 	add.w	r3, r7, #16
 8003e8a:	4610      	mov	r0, r2
 8003e8c:	4619      	mov	r1, r3
 8003e8e:	683a      	ldr	r2, [r7, #0]
 8003e90:	f04f 0300 	mov.w	r3, #0
 8003e94:	f7fe fe6a 	bl	8002b6c <xQueueGenericSendFromISR>
 8003e98:	61f8      	str	r0, [r7, #28]
 8003e9a:	69fb      	ldr	r3, [r7, #28]
 8003e9c:	4618      	mov	r0, r3
 8003e9e:	f107 0720 	add.w	r7, r7, #32
 8003ea2:	46bd      	mov	sp, r7
 8003ea4:	bd80      	pop	{r7, pc}
 8003ea6:	bf00      	nop
 8003ea8:	2000c97c 	.word	0x2000c97c

08003eac <prvProcessExpiredTimer>:
 8003eac:	b580      	push	{r7, lr}
 8003eae:	b086      	sub	sp, #24
 8003eb0:	af02      	add	r7, sp, #8
 8003eb2:	6078      	str	r0, [r7, #4]
 8003eb4:	6039      	str	r1, [r7, #0]
 8003eb6:	4b1c      	ldr	r3, [pc, #112]	; (8003f28 <prvProcessExpiredTimer+0x7c>)
 8003eb8:	681b      	ldr	r3, [r3, #0]
 8003eba:	68db      	ldr	r3, [r3, #12]
 8003ebc:	68db      	ldr	r3, [r3, #12]
 8003ebe:	60fb      	str	r3, [r7, #12]
 8003ec0:	68fb      	ldr	r3, [r7, #12]
 8003ec2:	f103 0304 	add.w	r3, r3, #4
 8003ec6:	4618      	mov	r0, r3
 8003ec8:	f7fe fd0c 	bl	80028e4 <vListRemove>
 8003ecc:	68fb      	ldr	r3, [r7, #12]
 8003ece:	69db      	ldr	r3, [r3, #28]
 8003ed0:	2b01      	cmp	r3, #1
 8003ed2:	d120      	bne.n	8003f16 <prvProcessExpiredTimer+0x6a>
 8003ed4:	68fb      	ldr	r3, [r7, #12]
 8003ed6:	699a      	ldr	r2, [r3, #24]
 8003ed8:	687b      	ldr	r3, [r7, #4]
 8003eda:	18d3      	adds	r3, r2, r3
 8003edc:	68f8      	ldr	r0, [r7, #12]
 8003ede:	4619      	mov	r1, r3
 8003ee0:	683a      	ldr	r2, [r7, #0]
 8003ee2:	687b      	ldr	r3, [r7, #4]
 8003ee4:	f000 f8b8 	bl	8004058 <prvInsertTimerInActiveList>
 8003ee8:	4603      	mov	r3, r0
 8003eea:	2b01      	cmp	r3, #1
 8003eec:	d113      	bne.n	8003f16 <prvProcessExpiredTimer+0x6a>
 8003eee:	f04f 0300 	mov.w	r3, #0
 8003ef2:	9300      	str	r3, [sp, #0]
 8003ef4:	68f8      	ldr	r0, [r7, #12]
 8003ef6:	f04f 0100 	mov.w	r1, #0
 8003efa:	687a      	ldr	r2, [r7, #4]
 8003efc:	f04f 0300 	mov.w	r3, #0
 8003f00:	f7ff ff88 	bl	8003e14 <xTimerGenericCommand>
 8003f04:	60b8      	str	r0, [r7, #8]
 8003f06:	68bb      	ldr	r3, [r7, #8]
 8003f08:	2b00      	cmp	r3, #0
 8003f0a:	d104      	bne.n	8003f16 <prvProcessExpiredTimer+0x6a>
 8003f0c:	f04f 0050 	mov.w	r0, #80	; 0x50
 8003f10:	f380 8811 	msr	BASEPRI, r0
 8003f14:	e7fe      	b.n	8003f14 <prvProcessExpiredTimer+0x68>
 8003f16:	68fb      	ldr	r3, [r7, #12]
 8003f18:	6a5b      	ldr	r3, [r3, #36]	; 0x24
 8003f1a:	68f8      	ldr	r0, [r7, #12]
 8003f1c:	4798      	blx	r3
 8003f1e:	f107 0710 	add.w	r7, r7, #16
 8003f22:	46bd      	mov	sp, r7
 8003f24:	bd80      	pop	{r7, pc}
 8003f26:	bf00      	nop
 8003f28:	2000c974 	.word	0x2000c974

08003f2c <prvTimerTask>:
 8003f2c:	b580      	push	{r7, lr}
 8003f2e:	b084      	sub	sp, #16
 8003f30:	af00      	add	r7, sp, #0
 8003f32:	6078      	str	r0, [r7, #4]
 8003f34:	f107 0308 	add.w	r3, r7, #8
 8003f38:	4618      	mov	r0, r3
 8003f3a:	f000 f843 	bl	8003fc4 <prvGetNextExpireTime>
 8003f3e:	60f8      	str	r0, [r7, #12]
 8003f40:	68bb      	ldr	r3, [r7, #8]
 8003f42:	68f8      	ldr	r0, [r7, #12]
 8003f44:	4619      	mov	r1, r3
 8003f46:	f000 f803 	bl	8003f50 <prvProcessTimerOrBlockTask>
 8003f4a:	f000 f8cd 	bl	80040e8 <prvProcessReceivedCommands>
 8003f4e:	e7f1      	b.n	8003f34 <prvTimerTask+0x8>

08003f50 <prvProcessTimerOrBlockTask>:
 8003f50:	b580      	push	{r7, lr}
 8003f52:	b084      	sub	sp, #16
 8003f54:	af00      	add	r7, sp, #0
 8003f56:	6078      	str	r0, [r7, #4]
 8003f58:	6039      	str	r1, [r7, #0]
 8003f5a:	f7ff fa7d 	bl	8003458 <vTaskSuspendAll>
 8003f5e:	f107 0308 	add.w	r3, r7, #8
 8003f62:	4618      	mov	r0, r3
 8003f64:	f000 f852 	bl	800400c <prvSampleTimeNow>
 8003f68:	60f8      	str	r0, [r7, #12]
 8003f6a:	68bb      	ldr	r3, [r7, #8]
 8003f6c:	2b00      	cmp	r3, #0
 8003f6e:	d11e      	bne.n	8003fae <prvProcessTimerOrBlockTask+0x5e>
 8003f70:	683b      	ldr	r3, [r7, #0]
 8003f72:	2b00      	cmp	r3, #0
 8003f74:	d10a      	bne.n	8003f8c <prvProcessTimerOrBlockTask+0x3c>
 8003f76:	687a      	ldr	r2, [r7, #4]
 8003f78:	68fb      	ldr	r3, [r7, #12]
 8003f7a:	429a      	cmp	r2, r3
 8003f7c:	d806      	bhi.n	8003f8c <prvProcessTimerOrBlockTask+0x3c>
 8003f7e:	f7ff fa79 	bl	8003474 <xTaskResumeAll>
 8003f82:	6878      	ldr	r0, [r7, #4]
 8003f84:	68f9      	ldr	r1, [r7, #12]
 8003f86:	f7ff ff91 	bl	8003eac <prvProcessExpiredTimer>
 8003f8a:	e014      	b.n	8003fb6 <prvProcessTimerOrBlockTask+0x66>
 8003f8c:	4b0c      	ldr	r3, [pc, #48]	; (8003fc0 <prvProcessTimerOrBlockTask+0x70>)
 8003f8e:	681a      	ldr	r2, [r3, #0]
 8003f90:	6879      	ldr	r1, [r7, #4]
 8003f92:	68fb      	ldr	r3, [r7, #12]
 8003f94:	1acb      	subs	r3, r1, r3
 8003f96:	4610      	mov	r0, r2
 8003f98:	4619      	mov	r1, r3
 8003f9a:	f7ff f813 	bl	8002fc4 <vQueueWaitForMessageRestricted>
 8003f9e:	f7ff fa69 	bl	8003474 <xTaskResumeAll>
 8003fa2:	4603      	mov	r3, r0
 8003fa4:	2b00      	cmp	r3, #0
 8003fa6:	d105      	bne.n	8003fb4 <prvProcessTimerOrBlockTask+0x64>
 8003fa8:	f7fe fb8a 	bl	80026c0 <vPortYieldFromISR>
 8003fac:	e003      	b.n	8003fb6 <prvProcessTimerOrBlockTask+0x66>
 8003fae:	f7ff fa61 	bl	8003474 <xTaskResumeAll>
 8003fb2:	e000      	b.n	8003fb6 <prvProcessTimerOrBlockTask+0x66>
 8003fb4:	bf00      	nop
 8003fb6:	f107 0710 	add.w	r7, r7, #16
 8003fba:	46bd      	mov	sp, r7
 8003fbc:	bd80      	pop	{r7, pc}
 8003fbe:	bf00      	nop
 8003fc0:	2000c97c 	.word	0x2000c97c

08003fc4 <prvGetNextExpireTime>:
 8003fc4:	b480      	push	{r7}
 8003fc6:	b085      	sub	sp, #20
 8003fc8:	af00      	add	r7, sp, #0
 8003fca:	6078      	str	r0, [r7, #4]
 8003fcc:	4b0e      	ldr	r3, [pc, #56]	; (8004008 <prvGetNextExpireTime+0x44>)
 8003fce:	681b      	ldr	r3, [r3, #0]
 8003fd0:	681b      	ldr	r3, [r3, #0]
 8003fd2:	2b00      	cmp	r3, #0
 8003fd4:	bf14      	ite	ne
 8003fd6:	2200      	movne	r2, #0
 8003fd8:	2201      	moveq	r2, #1
 8003fda:	687b      	ldr	r3, [r7, #4]
 8003fdc:	601a      	str	r2, [r3, #0]
 8003fde:	687b      	ldr	r3, [r7, #4]
 8003fe0:	681b      	ldr	r3, [r3, #0]
 8003fe2:	2b00      	cmp	r3, #0
 8003fe4:	d105      	bne.n	8003ff2 <prvGetNextExpireTime+0x2e>
 8003fe6:	4b08      	ldr	r3, [pc, #32]	; (8004008 <prvGetNextExpireTime+0x44>)
 8003fe8:	681b      	ldr	r3, [r3, #0]
 8003fea:	68db      	ldr	r3, [r3, #12]
 8003fec:	681b      	ldr	r3, [r3, #0]
 8003fee:	60fb      	str	r3, [r7, #12]
 8003ff0:	e002      	b.n	8003ff8 <prvGetNextExpireTime+0x34>
 8003ff2:	f04f 0300 	mov.w	r3, #0
 8003ff6:	60fb      	str	r3, [r7, #12]
 8003ff8:	68fb      	ldr	r3, [r7, #12]
 8003ffa:	4618      	mov	r0, r3
 8003ffc:	f107 0714 	add.w	r7, r7, #20
 8004000:	46bd      	mov	sp, r7
 8004002:	bc80      	pop	{r7}
 8004004:	4770      	bx	lr
 8004006:	bf00      	nop
 8004008:	2000c974 	.word	0x2000c974

0800400c <prvSampleTimeNow>:
 800400c:	b580      	push	{r7, lr}
 800400e:	b084      	sub	sp, #16
 8004010:	af00      	add	r7, sp, #0
 8004012:	6078      	str	r0, [r7, #4]
 8004014:	f7ff fac0 	bl	8003598 <xTaskGetTickCount>
 8004018:	60f8      	str	r0, [r7, #12]
 800401a:	4b0e      	ldr	r3, [pc, #56]	; (8004054 <prvSampleTimeNow+0x48>)
 800401c:	681b      	ldr	r3, [r3, #0]
 800401e:	68fa      	ldr	r2, [r7, #12]
 8004020:	429a      	cmp	r2, r3
 8004022:	d209      	bcs.n	8004038 <prvSampleTimeNow+0x2c>
 8004024:	4b0b      	ldr	r3, [pc, #44]	; (8004054 <prvSampleTimeNow+0x48>)
 8004026:	681b      	ldr	r3, [r3, #0]
 8004028:	4618      	mov	r0, r3
 800402a:	f000 f8e9 	bl	8004200 <prvSwitchTimerLists>
 800402e:	687b      	ldr	r3, [r7, #4]
 8004030:	f04f 0201 	mov.w	r2, #1
 8004034:	601a      	str	r2, [r3, #0]
 8004036:	e003      	b.n	8004040 <prvSampleTimeNow+0x34>
 8004038:	687b      	ldr	r3, [r7, #4]
 800403a:	f04f 0200 	mov.w	r2, #0
 800403e:	601a      	str	r2, [r3, #0]
 8004040:	4b04      	ldr	r3, [pc, #16]	; (8004054 <prvSampleTimeNow+0x48>)
 8004042:	68fa      	ldr	r2, [r7, #12]
 8004044:	601a      	str	r2, [r3, #0]
 8004046:	68fb      	ldr	r3, [r7, #12]
 8004048:	4618      	mov	r0, r3
 800404a:	f107 0710 	add.w	r7, r7, #16
 800404e:	46bd      	mov	sp, r7
 8004050:	bd80      	pop	{r7, pc}
 8004052:	bf00      	nop
 8004054:	2000c980 	.word	0x2000c980

08004058 <prvInsertTimerInActiveList>:
 8004058:	b580      	push	{r7, lr}
 800405a:	b086      	sub	sp, #24
 800405c:	af00      	add	r7, sp, #0
 800405e:	60f8      	str	r0, [r7, #12]
 8004060:	60b9      	str	r1, [r7, #8]
 8004062:	607a      	str	r2, [r7, #4]
 8004064:	603b      	str	r3, [r7, #0]
 8004066:	f04f 0300 	mov.w	r3, #0
 800406a:	617b      	str	r3, [r7, #20]
 800406c:	68fb      	ldr	r3, [r7, #12]
 800406e:	68ba      	ldr	r2, [r7, #8]
 8004070:	605a      	str	r2, [r3, #4]
 8004072:	68fb      	ldr	r3, [r7, #12]
 8004074:	68fa      	ldr	r2, [r7, #12]
 8004076:	611a      	str	r2, [r3, #16]
 8004078:	68ba      	ldr	r2, [r7, #8]
 800407a:	687b      	ldr	r3, [r7, #4]
 800407c:	429a      	cmp	r2, r3
 800407e:	d814      	bhi.n	80040aa <prvInsertTimerInActiveList+0x52>
 8004080:	687a      	ldr	r2, [r7, #4]
 8004082:	683b      	ldr	r3, [r7, #0]
 8004084:	1ad2      	subs	r2, r2, r3
 8004086:	68fb      	ldr	r3, [r7, #12]
 8004088:	699b      	ldr	r3, [r3, #24]
 800408a:	429a      	cmp	r2, r3
 800408c:	d303      	bcc.n	8004096 <prvInsertTimerInActiveList+0x3e>
 800408e:	f04f 0301 	mov.w	r3, #1
 8004092:	617b      	str	r3, [r7, #20]
 8004094:	e01e      	b.n	80040d4 <prvInsertTimerInActiveList+0x7c>
 8004096:	4b12      	ldr	r3, [pc, #72]	; (80040e0 <prvInsertTimerInActiveList+0x88>)
 8004098:	681a      	ldr	r2, [r3, #0]
 800409a:	68fb      	ldr	r3, [r7, #12]
 800409c:	f103 0304 	add.w	r3, r3, #4
 80040a0:	4610      	mov	r0, r2
 80040a2:	4619      	mov	r1, r3
 80040a4:	f7fe fbe4 	bl	8002870 <vListInsert>
 80040a8:	e014      	b.n	80040d4 <prvInsertTimerInActiveList+0x7c>
 80040aa:	687a      	ldr	r2, [r7, #4]
 80040ac:	683b      	ldr	r3, [r7, #0]
 80040ae:	429a      	cmp	r2, r3
 80040b0:	d207      	bcs.n	80040c2 <prvInsertTimerInActiveList+0x6a>
 80040b2:	68ba      	ldr	r2, [r7, #8]
 80040b4:	683b      	ldr	r3, [r7, #0]
 80040b6:	429a      	cmp	r2, r3
 80040b8:	d303      	bcc.n	80040c2 <prvInsertTimerInActiveList+0x6a>
 80040ba:	f04f 0301 	mov.w	r3, #1
 80040be:	617b      	str	r3, [r7, #20]
 80040c0:	e008      	b.n	80040d4 <prvInsertTimerInActiveList+0x7c>
 80040c2:	4b08      	ldr	r3, [pc, #32]	; (80040e4 <prvInsertTimerInActiveList+0x8c>)
 80040c4:	681a      	ldr	r2, [r3, #0]
 80040c6:	68fb      	ldr	r3, [r7, #12]
 80040c8:	f103 0304 	add.w	r3, r3, #4
 80040cc:	4610      	mov	r0, r2
 80040ce:	4619      	mov	r1, r3
 80040d0:	f7fe fbce 	bl	8002870 <vListInsert>
 80040d4:	697b      	ldr	r3, [r7, #20]
 80040d6:	4618      	mov	r0, r3
 80040d8:	f107 0718 	add.w	r7, r7, #24
 80040dc:	46bd      	mov	sp, r7
 80040de:	bd80      	pop	{r7, pc}
 80040e0:	2000c978 	.word	0x2000c978
 80040e4:	2000c974 	.word	0x2000c974

080040e8 <prvProcessReceivedCommands>:
 80040e8:	b580      	push	{r7, lr}
 80040ea:	b08a      	sub	sp, #40	; 0x28
 80040ec:	af02      	add	r7, sp, #8
 80040ee:	f107 0304 	add.w	r3, r7, #4
 80040f2:	4618      	mov	r0, r3
 80040f4:	f7ff ff8a 	bl	800400c <prvSampleTimeNow>
 80040f8:	61f8      	str	r0, [r7, #28]
 80040fa:	e06c      	b.n	80041d6 <prvProcessReceivedCommands+0xee>
 80040fc:	693b      	ldr	r3, [r7, #16]
 80040fe:	61bb      	str	r3, [r7, #24]
 8004100:	69bb      	ldr	r3, [r7, #24]
 8004102:	2b00      	cmp	r3, #0
 8004104:	d009      	beq.n	800411a <prvProcessReceivedCommands+0x32>
 8004106:	69bb      	ldr	r3, [r7, #24]
 8004108:	695b      	ldr	r3, [r3, #20]
 800410a:	2b00      	cmp	r3, #0
 800410c:	d005      	beq.n	800411a <prvProcessReceivedCommands+0x32>
 800410e:	69bb      	ldr	r3, [r7, #24]
 8004110:	f103 0304 	add.w	r3, r3, #4
 8004114:	4618      	mov	r0, r3
 8004116:	f7fe fbe5 	bl	80028e4 <vListRemove>
 800411a:	68bb      	ldr	r3, [r7, #8]
 800411c:	2b03      	cmp	r3, #3
 800411e:	d853      	bhi.n	80041c8 <prvProcessReceivedCommands+0xe0>
 8004120:	a201      	add	r2, pc, #4	; (adr r2, 8004128 <prvProcessReceivedCommands+0x40>)
 8004122:	f852 f023 	ldr.w	pc, [r2, r3, lsl #2]
 8004126:	bf00      	nop
 8004128:	08004139 	.word	0x08004139
 800412c:	080041c9 	.word	0x080041c9
 8004130:	08004193 	.word	0x08004193
 8004134:	080041c1 	.word	0x080041c1
 8004138:	68fa      	ldr	r2, [r7, #12]
 800413a:	69bb      	ldr	r3, [r7, #24]
 800413c:	699b      	ldr	r3, [r3, #24]
 800413e:	18d2      	adds	r2, r2, r3
 8004140:	68fb      	ldr	r3, [r7, #12]
 8004142:	69b8      	ldr	r0, [r7, #24]
 8004144:	4611      	mov	r1, r2
 8004146:	69fa      	ldr	r2, [r7, #28]
 8004148:	f7ff ff86 	bl	8004058 <prvInsertTimerInActiveList>
 800414c:	4603      	mov	r3, r0
 800414e:	2b01      	cmp	r3, #1
 8004150:	d13c      	bne.n	80041cc <prvProcessReceivedCommands+0xe4>
 8004152:	69bb      	ldr	r3, [r7, #24]
 8004154:	6a5b      	ldr	r3, [r3, #36]	; 0x24
 8004156:	69b8      	ldr	r0, [r7, #24]
 8004158:	4798      	blx	r3
 800415a:	69bb      	ldr	r3, [r7, #24]
 800415c:	69db      	ldr	r3, [r3, #28]
 800415e:	2b01      	cmp	r3, #1
 8004160:	d136      	bne.n	80041d0 <prvProcessReceivedCommands+0xe8>
 8004162:	68fa      	ldr	r2, [r7, #12]
 8004164:	69bb      	ldr	r3, [r7, #24]
 8004166:	699b      	ldr	r3, [r3, #24]
 8004168:	18d3      	adds	r3, r2, r3
 800416a:	f04f 0200 	mov.w	r2, #0
 800416e:	9200      	str	r2, [sp, #0]
 8004170:	69b8      	ldr	r0, [r7, #24]
 8004172:	f04f 0100 	mov.w	r1, #0
 8004176:	461a      	mov	r2, r3
 8004178:	f04f 0300 	mov.w	r3, #0
 800417c:	f7ff fe4a 	bl	8003e14 <xTimerGenericCommand>
 8004180:	6178      	str	r0, [r7, #20]
 8004182:	697b      	ldr	r3, [r7, #20]
 8004184:	2b00      	cmp	r3, #0
 8004186:	d125      	bne.n	80041d4 <prvProcessReceivedCommands+0xec>
 8004188:	f04f 0050 	mov.w	r0, #80	; 0x50
 800418c:	f380 8811 	msr	BASEPRI, r0
 8004190:	e7fe      	b.n	8004190 <prvProcessReceivedCommands+0xa8>
 8004192:	68fa      	ldr	r2, [r7, #12]
 8004194:	69bb      	ldr	r3, [r7, #24]
 8004196:	619a      	str	r2, [r3, #24]
 8004198:	69bb      	ldr	r3, [r7, #24]
 800419a:	699b      	ldr	r3, [r3, #24]
 800419c:	2b00      	cmp	r3, #0
 800419e:	d104      	bne.n	80041aa <prvProcessReceivedCommands+0xc2>
 80041a0:	f04f 0050 	mov.w	r0, #80	; 0x50
 80041a4:	f380 8811 	msr	BASEPRI, r0
 80041a8:	e7fe      	b.n	80041a8 <prvProcessReceivedCommands+0xc0>
 80041aa:	69bb      	ldr	r3, [r7, #24]
 80041ac:	699a      	ldr	r2, [r3, #24]
 80041ae:	69fb      	ldr	r3, [r7, #28]
 80041b0:	18d3      	adds	r3, r2, r3
 80041b2:	69b8      	ldr	r0, [r7, #24]
 80041b4:	4619      	mov	r1, r3
 80041b6:	69fa      	ldr	r2, [r7, #28]
 80041b8:	69fb      	ldr	r3, [r7, #28]
 80041ba:	f7ff ff4d 	bl	8004058 <prvInsertTimerInActiveList>
 80041be:	e00a      	b.n	80041d6 <prvProcessReceivedCommands+0xee>
 80041c0:	69b8      	ldr	r0, [r7, #24]
 80041c2:	f7fe f9cd 	bl	8002560 <vPortFree>
 80041c6:	e006      	b.n	80041d6 <prvProcessReceivedCommands+0xee>
 80041c8:	bf00      	nop
 80041ca:	e004      	b.n	80041d6 <prvProcessReceivedCommands+0xee>
 80041cc:	bf00      	nop
 80041ce:	e002      	b.n	80041d6 <prvProcessReceivedCommands+0xee>
 80041d0:	bf00      	nop
 80041d2:	e000      	b.n	80041d6 <prvProcessReceivedCommands+0xee>
 80041d4:	bf00      	nop
 80041d6:	4b09      	ldr	r3, [pc, #36]	; (80041fc <prvProcessReceivedCommands+0x114>)
 80041d8:	681a      	ldr	r2, [r3, #0]
 80041da:	f107 0308 	add.w	r3, r7, #8
 80041de:	4610      	mov	r0, r2
 80041e0:	4619      	mov	r1, r3
 80041e2:	f04f 0200 	mov.w	r2, #0
 80041e6:	f04f 0300 	mov.w	r3, #0
 80041ea:	f7fe fd29 	bl	8002c40 <xQueueGenericReceive>
 80041ee:	4603      	mov	r3, r0
 80041f0:	2b00      	cmp	r3, #0
 80041f2:	d183      	bne.n	80040fc <prvProcessReceivedCommands+0x14>
 80041f4:	f107 0720 	add.w	r7, r7, #32
 80041f8:	46bd      	mov	sp, r7
 80041fa:	bd80      	pop	{r7, pc}
 80041fc:	2000c97c 	.word	0x2000c97c

08004200 <prvSwitchTimerLists>:
 8004200:	b580      	push	{r7, lr}
 8004202:	b08a      	sub	sp, #40	; 0x28
 8004204:	af02      	add	r7, sp, #8
 8004206:	6078      	str	r0, [r7, #4]
 8004208:	e044      	b.n	8004294 <prvSwitchTimerLists+0x94>
 800420a:	4b2c      	ldr	r3, [pc, #176]	; (80042bc <prvSwitchTimerLists+0xbc>)
 800420c:	681b      	ldr	r3, [r3, #0]
 800420e:	68db      	ldr	r3, [r3, #12]
 8004210:	681b      	ldr	r3, [r3, #0]
 8004212:	61fb      	str	r3, [r7, #28]
 8004214:	4b29      	ldr	r3, [pc, #164]	; (80042bc <prvSwitchTimerLists+0xbc>)
 8004216:	681b      	ldr	r3, [r3, #0]
 8004218:	68db      	ldr	r3, [r3, #12]
 800421a:	68db      	ldr	r3, [r3, #12]
 800421c:	61bb      	str	r3, [r7, #24]
 800421e:	69bb      	ldr	r3, [r7, #24]
 8004220:	f103 0304 	add.w	r3, r3, #4
 8004224:	4618      	mov	r0, r3
 8004226:	f7fe fb5d 	bl	80028e4 <vListRemove>
 800422a:	69bb      	ldr	r3, [r7, #24]
 800422c:	6a5b      	ldr	r3, [r3, #36]	; 0x24
 800422e:	69b8      	ldr	r0, [r7, #24]
 8004230:	4798      	blx	r3
 8004232:	69bb      	ldr	r3, [r7, #24]
 8004234:	69db      	ldr	r3, [r3, #28]
 8004236:	2b01      	cmp	r3, #1
 8004238:	d12c      	bne.n	8004294 <prvSwitchTimerLists+0x94>
 800423a:	69bb      	ldr	r3, [r7, #24]
 800423c:	699a      	ldr	r2, [r3, #24]
 800423e:	69fb      	ldr	r3, [r7, #28]
 8004240:	18d3      	adds	r3, r2, r3
 8004242:	617b      	str	r3, [r7, #20]
 8004244:	697a      	ldr	r2, [r7, #20]
 8004246:	69fb      	ldr	r3, [r7, #28]
 8004248:	429a      	cmp	r2, r3
 800424a:	d90f      	bls.n	800426c <prvSwitchTimerLists+0x6c>
 800424c:	69bb      	ldr	r3, [r7, #24]
 800424e:	697a      	ldr	r2, [r7, #20]
 8004250:	605a      	str	r2, [r3, #4]
 8004252:	69bb      	ldr	r3, [r7, #24]
 8004254:	69ba      	ldr	r2, [r7, #24]
 8004256:	611a      	str	r2, [r3, #16]
 8004258:	4b18      	ldr	r3, [pc, #96]	; (80042bc <prvSwitchTimerLists+0xbc>)
 800425a:	681a      	ldr	r2, [r3, #0]
 800425c:	69bb      	ldr	r3, [r7, #24]
 800425e:	f103 0304 	add.w	r3, r3, #4
 8004262:	4610      	mov	r0, r2
 8004264:	4619      	mov	r1, r3
 8004266:	f7fe fb03 	bl	8002870 <vListInsert>
 800426a:	e013      	b.n	8004294 <prvSwitchTimerLists+0x94>
 800426c:	f04f 0300 	mov.w	r3, #0
 8004270:	9300      	str	r3, [sp, #0]
 8004272:	69b8      	ldr	r0, [r7, #24]
 8004274:	f04f 0100 	mov.w	r1, #0
 8004278:	69fa      	ldr	r2, [r7, #28]
 800427a:	f04f 0300 	mov.w	r3, #0
 800427e:	f7ff fdc9 	bl	8003e14 <xTimerGenericCommand>
 8004282:	6138      	str	r0, [r7, #16]
 8004284:	693b      	ldr	r3, [r7, #16]
 8004286:	2b00      	cmp	r3, #0
 8004288:	d104      	bne.n	8004294 <prvSwitchTimerLists+0x94>
 800428a:	f04f 0050 	mov.w	r0, #80	; 0x50
 800428e:	f380 8811 	msr	BASEPRI, r0
 8004292:	e7fe      	b.n	8004292 <prvSwitchTimerLists+0x92>
 8004294:	4b09      	ldr	r3, [pc, #36]	; (80042bc <prvSwitchTimerLists+0xbc>)
 8004296:	681b      	ldr	r3, [r3, #0]
 8004298:	681b      	ldr	r3, [r3, #0]
 800429a:	2b00      	cmp	r3, #0
 800429c:	d1b5      	bne.n	800420a <prvSwitchTimerLists+0xa>
 800429e:	4b07      	ldr	r3, [pc, #28]	; (80042bc <prvSwitchTimerLists+0xbc>)
 80042a0:	681b      	ldr	r3, [r3, #0]
 80042a2:	60fb      	str	r3, [r7, #12]
 80042a4:	4b06      	ldr	r3, [pc, #24]	; (80042c0 <prvSwitchTimerLists+0xc0>)
 80042a6:	681a      	ldr	r2, [r3, #0]
 80042a8:	4b04      	ldr	r3, [pc, #16]	; (80042bc <prvSwitchTimerLists+0xbc>)
 80042aa:	601a      	str	r2, [r3, #0]
 80042ac:	4b04      	ldr	r3, [pc, #16]	; (80042c0 <prvSwitchTimerLists+0xc0>)
 80042ae:	68fa      	ldr	r2, [r7, #12]
 80042b0:	601a      	str	r2, [r3, #0]
 80042b2:	f107 0720 	add.w	r7, r7, #32
 80042b6:	46bd      	mov	sp, r7
 80042b8:	bd80      	pop	{r7, pc}
 80042ba:	bf00      	nop
 80042bc:	2000c974 	.word	0x2000c974
 80042c0:	2000c978 	.word	0x2000c978

080042c4 <prvCheckForValidListAndQueue>:
 80042c4:	b580      	push	{r7, lr}
 80042c6:	af00      	add	r7, sp, #0
 80042c8:	f7fe fa06 	bl	80026d8 <vPortEnterCritical>
 80042cc:	4b0d      	ldr	r3, [pc, #52]	; (8004304 <prvCheckForValidListAndQueue+0x40>)
 80042ce:	681b      	ldr	r3, [r3, #0]
 80042d0:	2b00      	cmp	r3, #0
 80042d2:	d114      	bne.n	80042fe <prvCheckForValidListAndQueue+0x3a>
 80042d4:	480c      	ldr	r0, [pc, #48]	; (8004308 <prvCheckForValidListAndQueue+0x44>)
 80042d6:	f7fe fa71 	bl	80027bc <vListInitialise>
 80042da:	480c      	ldr	r0, [pc, #48]	; (800430c <prvCheckForValidListAndQueue+0x48>)
 80042dc:	f7fe fa6e 	bl	80027bc <vListInitialise>
 80042e0:	4b0b      	ldr	r3, [pc, #44]	; (8004310 <prvCheckForValidListAndQueue+0x4c>)
 80042e2:	4a09      	ldr	r2, [pc, #36]	; (8004308 <prvCheckForValidListAndQueue+0x44>)
 80042e4:	601a      	str	r2, [r3, #0]
 80042e6:	4b0b      	ldr	r3, [pc, #44]	; (8004314 <prvCheckForValidListAndQueue+0x50>)
 80042e8:	4a08      	ldr	r2, [pc, #32]	; (800430c <prvCheckForValidListAndQueue+0x48>)
 80042ea:	601a      	str	r2, [r3, #0]
 80042ec:	f04f 0006 	mov.w	r0, #6
 80042f0:	f04f 010c 	mov.w	r1, #12
 80042f4:	f7fe fb20 	bl	8002938 <xQueueCreate>
 80042f8:	4602      	mov	r2, r0
 80042fa:	4b02      	ldr	r3, [pc, #8]	; (8004304 <prvCheckForValidListAndQueue+0x40>)
 80042fc:	601a      	str	r2, [r3, #0]
 80042fe:	f7fe f9fd 	bl	80026fc <vPortExitCritical>
 8004302:	bd80      	pop	{r7, pc}
 8004304:	2000c97c 	.word	0x2000c97c
 8004308:	2000c94c 	.word	0x2000c94c
 800430c:	2000c960 	.word	0x2000c960
 8004310:	2000c974 	.word	0x2000c974
 8004314:	2000c978 	.word	0x2000c978
 8004318:	3344454c 	.word	0x3344454c
 800431c:	00000000 	.word	0x00000000
 8004320:	3444454c 	.word	0x3444454c
 8004324:	00000000 	.word	0x00000000
 8004328:	3544454c 	.word	0x3544454c
 800432c:	00000000 	.word	0x00000000
 8004330:	3644454c 	.word	0x3644454c
 8004334:	00000000 	.word	0x00000000
 8004338:	54495753 	.word	0x54495753
 800433c:	00004843 	.word	0x00004843
 8004340:	534d454d 	.word	0x534d454d
 8004344:	00000000 	.word	0x00000000
 8004348:	414c4142 	.word	0x414c4142
 800434c:	0045434e 	.word	0x0045434e
 8004350:	454c4449 	.word	0x454c4449
 8004354:	00000000 	.word	0x00000000
 8004358:	20726d54 	.word	0x20726d54
 800435c:	00637653 	.word	0x00637653

08004360 <LEDS>:
 8004360:	00000001 0000007d 00000000 000000fa     ....}...........
 8004370:	00000002 00000177 00000003 000001f4     ....w...........

08004380 <GPIO_PIN>:
 8004380:	20001000 80004000                       ... .@..

08004388 <BUTTON_PIN>:
 8004388:	00000001                                ....

0800438c <BUTTON_CLK>:
 800438c:	00000001                                ....

08004390 <BUTTON_EXTI_LINE>:
 8004390:	00000001                                ....

08004394 <BUTTON_PORT_SOURCE>:
 8004394:	00000000                                ....

08004398 <BUTTON_PIN_SOURCE>:
 8004398:	00000000                                ....

0800439c <BUTTON_IRQn>:
 800439c:	00000006                                ....

080043a0 <heapSTRUCT_SIZE>:
 80043a0:	00000010                                ....

080043a4 <ucExpectedStackBytes.5767>:
 80043a4:	a5a5a5a5 a5a5a5a5 a5a5a5a5 a5a5a5a5     ................
 80043b4:	a5a5a5a5                                ....

080043b8 <_init>:
 80043b8:	b5f8      	push	{r3, r4, r5, r6, r7, lr}
 80043ba:	bf00      	nop
 80043bc:	bcf8      	pop	{r3, r4, r5, r6, r7}
 80043be:	bc08      	pop	{r3}
 80043c0:	469e      	mov	lr, r3
 80043c2:	4770      	bx	lr

080043c4 <_fini>:
 80043c4:	b5f8      	push	{r3, r4, r5, r6, r7, lr}
 80043c6:	bf00      	nop
 80043c8:	bcf8      	pop	{r3, r4, r5, r6, r7}
 80043ca:	bc08      	pop	{r3}
 80043cc:	469e      	mov	lr, r3
 80043ce:	4770      	bx	lr
